(lp0
(dp1
S'cluster_id'
p2
I19
sS'prod_id'
p3
I0
sS'prod_name'
p4
S'product0cluster19'
p5
sa(dp6
g2
I1
sg3
I1
sg4
S'product1cluster1'
p7
sa(dp8
g2
I0
sg3
I2
sg4
S'product2cluster0'
p9
sa(dp10
g2
I1
sg3
I3
sg4
S'product3cluster1'
p11
sa(dp12
g2
I10
sg3
I4
sg4
S'product4cluster10'
p13
sa(dp14
g2
I15
sg3
I5
sg4
S'product5cluster15'
p15
sa(dp16
g2
I11
sg3
I6
sg4
S'product6cluster11'
p17
sa(dp18
g2
I12
sg3
I7
sg4
S'product7cluster12'
p19
sa(dp20
g2
I18
sg3
I8
sg4
S'product8cluster18'
p21
sa(dp22
g2
I1
sg3
I9
sg4
S'product9cluster1'
p23
sa(dp24
g2
I13
sg3
I10
sg4
S'product10cluster13'
p25
sa(dp26
g2
I9
sg3
I11
sg4
S'product11cluster9'
p27
sa(dp28
g2
I7
sg3
I12
sg4
S'product12cluster7'
p29
sa(dp30
g2
I3
sg3
I13
sg4
S'product13cluster3'
p31
sa(dp32
g2
I2
sg3
I14
sg4
S'product14cluster2'
p33
sa(dp34
g2
I17
sg3
I15
sg4
S'product15cluster17'
p35
sa(dp36
g2
I13
sg3
I16
sg4
S'product16cluster13'
p37
sa(dp38
g2
I2
sg3
I17
sg4
S'product17cluster2'
p39
sa(dp40
g2
I14
sg3
I18
sg4
S'product18cluster14'
p41
sa(dp42
g2
I15
sg3
I19
sg4
S'product19cluster15'
p43
sa(dp44
g2
I8
sg3
I20
sg4
S'product20cluster8'
p45
sa(dp46
g2
I7
sg3
I21
sg4
S'product21cluster7'
p47
sa(dp48
g2
I5
sg3
I22
sg4
S'product22cluster5'
p49
sa(dp50
g2
I7
sg3
I23
sg4
S'product23cluster7'
p51
sa(dp52
g2
I5
sg3
I24
sg4
S'product24cluster5'
p53
sa(dp54
g2
I2
sg3
I25
sg4
S'product25cluster2'
p55
sa(dp56
g2
I13
sg3
I26
sg4
S'product26cluster13'
p57
sa(dp58
g2
I0
sg3
I27
sg4
S'product27cluster0'
p59
sa(dp60
g2
I6
sg3
I28
sg4
S'product28cluster6'
p61
sa(dp62
g2
I0
sg3
I29
sg4
S'product29cluster0'
p63
sa(dp64
g2
I2
sg3
I30
sg4
S'product30cluster2'
p65
sa(dp66
g2
I5
sg3
I31
sg4
S'product31cluster5'
p67
sa(dp68
g2
I10
sg3
I32
sg4
S'product32cluster10'
p69
sa(dp70
g2
I0
sg3
I33
sg4
S'product33cluster0'
p71
sa(dp72
g2
I2
sg3
I34
sg4
S'product34cluster2'
p73
sa(dp74
g2
I10
sg3
I35
sg4
S'product35cluster10'
p75
sa(dp76
g2
I10
sg3
I36
sg4
S'product36cluster10'
p77
sa(dp78
g2
I12
sg3
I37
sg4
S'product37cluster12'
p79
sa(dp80
g2
I7
sg3
I38
sg4
S'product38cluster7'
p81
sa(dp82
g2
I15
sg3
I39
sg4
S'product39cluster15'
p83
sa(dp84
g2
I0
sg3
I40
sg4
S'product40cluster0'
p85
sa(dp86
g2
I7
sg3
I41
sg4
S'product41cluster7'
p87
sa(dp88
g2
I11
sg3
I42
sg4
S'product42cluster11'
p89
sa(dp90
g2
I9
sg3
I43
sg4
S'product43cluster9'
p91
sa(dp92
g2
I15
sg3
I44
sg4
S'product44cluster15'
p93
sa(dp94
g2
I10
sg3
I45
sg4
S'product45cluster10'
p95
sa(dp96
g2
I1
sg3
I46
sg4
S'product46cluster1'
p97
sa(dp98
g2
I9
sg3
I47
sg4
S'product47cluster9'
p99
sa(dp100
g2
I4
sg3
I48
sg4
S'product48cluster4'
p101
sa(dp102
g2
I17
sg3
I49
sg4
S'product49cluster17'
p103
sa(dp104
g2
I1
sg3
I50
sg4
S'product50cluster1'
p105
sa(dp106
g2
I14
sg3
I51
sg4
S'product51cluster14'
p107
sa(dp108
g2
I19
sg3
I52
sg4
S'product52cluster19'
p109
sa(dp110
g2
I18
sg3
I53
sg4
S'product53cluster18'
p111
sa(dp112
g2
I11
sg3
I54
sg4
S'product54cluster11'
p113
sa(dp114
g2
I16
sg3
I55
sg4
S'product55cluster16'
p115
sa(dp116
g2
I8
sg3
I56
sg4
S'product56cluster8'
p117
sa(dp118
g2
I17
sg3
I57
sg4
S'product57cluster17'
p119
sa(dp120
g2
I5
sg3
I58
sg4
S'product58cluster5'
p121
sa(dp122
g2
I5
sg3
I59
sg4
S'product59cluster5'
p123
sa(dp124
g2
I10
sg3
I60
sg4
S'product60cluster10'
p125
sa(dp126
g2
I11
sg3
I61
sg4
S'product61cluster11'
p127
sa(dp128
g2
I7
sg3
I62
sg4
S'product62cluster7'
p129
sa(dp130
g2
I16
sg3
I63
sg4
S'product63cluster16'
p131
sa(dp132
g2
I15
sg3
I64
sg4
S'product64cluster15'
p133
sa(dp134
g2
I15
sg3
I65
sg4
S'product65cluster15'
p135
sa(dp136
g2
I11
sg3
I66
sg4
S'product66cluster11'
p137
sa(dp138
g2
I7
sg3
I67
sg4
S'product67cluster7'
p139
sa(dp140
g2
I7
sg3
I68
sg4
S'product68cluster7'
p141
sa(dp142
g2
I5
sg3
I69
sg4
S'product69cluster5'
p143
sa(dp144
g2
I11
sg3
I70
sg4
S'product70cluster11'
p145
sa(dp146
g2
I0
sg3
I71
sg4
S'product71cluster0'
p147
sa(dp148
g2
I17
sg3
I72
sg4
S'product72cluster17'
p149
sa(dp150
g2
I19
sg3
I73
sg4
S'product73cluster19'
p151
sa(dp152
g2
I11
sg3
I74
sg4
S'product74cluster11'
p153
sa(dp154
g2
I0
sg3
I75
sg4
S'product75cluster0'
p155
sa(dp156
g2
I13
sg3
I76
sg4
S'product76cluster13'
p157
sa(dp158
g2
I16
sg3
I77
sg4
S'product77cluster16'
p159
sa(dp160
g2
I11
sg3
I78
sg4
S'product78cluster11'
p161
sa(dp162
g2
I0
sg3
I79
sg4
S'product79cluster0'
p163
sa(dp164
g2
I5
sg3
I80
sg4
S'product80cluster5'
p165
sa(dp166
g2
I13
sg3
I81
sg4
S'product81cluster13'
p167
sa(dp168
g2
I8
sg3
I82
sg4
S'product82cluster8'
p169
sa(dp170
g2
I1
sg3
I83
sg4
S'product83cluster1'
p171
sa(dp172
g2
I2
sg3
I84
sg4
S'product84cluster2'
p173
sa(dp174
g2
I7
sg3
I85
sg4
S'product85cluster7'
p175
sa(dp176
g2
I10
sg3
I86
sg4
S'product86cluster10'
p177
sa(dp178
g2
I11
sg3
I87
sg4
S'product87cluster11'
p179
sa(dp180
g2
I8
sg3
I88
sg4
S'product88cluster8'
p181
sa(dp182
g2
I8
sg3
I89
sg4
S'product89cluster8'
p183
sa(dp184
g2
I13
sg3
I90
sg4
S'product90cluster13'
p185
sa(dp186
g2
I16
sg3
I91
sg4
S'product91cluster16'
p187
sa(dp188
g2
I16
sg3
I92
sg4
S'product92cluster16'
p189
sa(dp190
g2
I16
sg3
I93
sg4
S'product93cluster16'
p191
sa(dp192
g2
I18
sg3
I94
sg4
S'product94cluster18'
p193
sa(dp194
g2
I5
sg3
I95
sg4
S'product95cluster5'
p195
sa(dp196
g2
I0
sg3
I96
sg4
S'product96cluster0'
p197
sa(dp198
g2
I15
sg3
I97
sg4
S'product97cluster15'
p199
sa(dp200
g2
I3
sg3
I98
sg4
S'product98cluster3'
p201
sa(dp202
g2
I13
sg3
I99
sg4
S'product99cluster13'
p203
sa(dp204
g2
I4
sg3
I100
sg4
S'product100cluster4'
p205
sa(dp206
g2
I15
sg3
I101
sg4
S'product101cluster15'
p207
sa(dp208
g2
I0
sg3
I102
sg4
S'product102cluster0'
p209
sa(dp210
g2
I3
sg3
I103
sg4
S'product103cluster3'
p211
sa(dp212
g2
I7
sg3
I104
sg4
S'product104cluster7'
p213
sa(dp214
g2
I10
sg3
I105
sg4
S'product105cluster10'
p215
sa(dp216
g2
I11
sg3
I106
sg4
S'product106cluster11'
p217
sa(dp218
g2
I15
sg3
I107
sg4
S'product107cluster15'
p219
sa(dp220
g2
I7
sg3
I108
sg4
S'product108cluster7'
p221
sa(dp222
g2
I0
sg3
I109
sg4
S'product109cluster0'
p223
sa(dp224
g2
I15
sg3
I110
sg4
S'product110cluster15'
p225
sa(dp226
g2
I4
sg3
I111
sg4
S'product111cluster4'
p227
sa(dp228
g2
I14
sg3
I112
sg4
S'product112cluster14'
p229
sa(dp230
g2
I11
sg3
I113
sg4
S'product113cluster11'
p231
sa(dp232
g2
I1
sg3
I114
sg4
S'product114cluster1'
p233
sa(dp234
g2
I13
sg3
I115
sg4
S'product115cluster13'
p235
sa(dp236
g2
I15
sg3
I116
sg4
S'product116cluster15'
p237
sa(dp238
g2
I15
sg3
I117
sg4
S'product117cluster15'
p239
sa(dp240
g2
I17
sg3
I118
sg4
S'product118cluster17'
p241
sa(dp242
g2
I7
sg3
I119
sg4
S'product119cluster7'
p243
sa(dp244
g2
I8
sg3
I120
sg4
S'product120cluster8'
p245
sa(dp246
g2
I2
sg3
I121
sg4
S'product121cluster2'
p247
sa(dp248
g2
I16
sg3
I122
sg4
S'product122cluster16'
p249
sa(dp250
g2
I3
sg3
I123
sg4
S'product123cluster3'
p251
sa(dp252
g2
I4
sg3
I124
sg4
S'product124cluster4'
p253
sa(dp254
g2
I5
sg3
I125
sg4
S'product125cluster5'
p255
sa(dp256
g2
I1
sg3
I126
sg4
S'product126cluster1'
p257
sa(dp258
g2
I5
sg3
I127
sg4
S'product127cluster5'
p259
sa(dp260
g2
I2
sg3
I128
sg4
S'product128cluster2'
p261
sa(dp262
g2
I11
sg3
I129
sg4
S'product129cluster11'
p263
sa(dp264
g2
I8
sg3
I130
sg4
S'product130cluster8'
p265
sa(dp266
g2
I13
sg3
I131
sg4
S'product131cluster13'
p267
sa(dp268
g2
I6
sg3
I132
sg4
S'product132cluster6'
p269
sa(dp270
g2
I19
sg3
I133
sg4
S'product133cluster19'
p271
sa(dp272
g2
I4
sg3
I134
sg4
S'product134cluster4'
p273
sa(dp274
g2
I16
sg3
I135
sg4
S'product135cluster16'
p275
sa(dp276
g2
I19
sg3
I136
sg4
S'product136cluster19'
p277
sa(dp278
g2
I8
sg3
I137
sg4
S'product137cluster8'
p279
sa(dp280
g2
I6
sg3
I138
sg4
S'product138cluster6'
p281
sa(dp282
g2
I0
sg3
I139
sg4
S'product139cluster0'
p283
sa(dp284
g2
I8
sg3
I140
sg4
S'product140cluster8'
p285
sa(dp286
g2
I8
sg3
I141
sg4
S'product141cluster8'
p287
sa(dp288
g2
I3
sg3
I142
sg4
S'product142cluster3'
p289
sa(dp290
g2
I7
sg3
I143
sg4
S'product143cluster7'
p291
sa(dp292
g2
I3
sg3
I144
sg4
S'product144cluster3'
p293
sa(dp294
g2
I0
sg3
I145
sg4
S'product145cluster0'
p295
sa(dp296
g2
I14
sg3
I146
sg4
S'product146cluster14'
p297
sa(dp298
g2
I7
sg3
I147
sg4
S'product147cluster7'
p299
sa(dp300
g2
I13
sg3
I148
sg4
S'product148cluster13'
p301
sa(dp302
g2
I10
sg3
I149
sg4
S'product149cluster10'
p303
sa(dp304
g2
I15
sg3
I150
sg4
S'product150cluster15'
p305
sa(dp306
g2
I8
sg3
I151
sg4
S'product151cluster8'
p307
sa(dp308
g2
I9
sg3
I152
sg4
S'product152cluster9'
p309
sa(dp310
g2
I12
sg3
I153
sg4
S'product153cluster12'
p311
sa(dp312
g2
I1
sg3
I154
sg4
S'product154cluster1'
p313
sa(dp314
g2
I8
sg3
I155
sg4
S'product155cluster8'
p315
sa(dp316
g2
I5
sg3
I156
sg4
S'product156cluster5'
p317
sa(dp318
g2
I18
sg3
I157
sg4
S'product157cluster18'
p319
sa(dp320
g2
I3
sg3
I158
sg4
S'product158cluster3'
p321
sa(dp322
g2
I18
sg3
I159
sg4
S'product159cluster18'
p323
sa(dp324
g2
I18
sg3
I160
sg4
S'product160cluster18'
p325
sa(dp326
g2
I12
sg3
I161
sg4
S'product161cluster12'
p327
sa(dp328
g2
I1
sg3
I162
sg4
S'product162cluster1'
p329
sa(dp330
g2
I18
sg3
I163
sg4
S'product163cluster18'
p331
sa(dp332
g2
I6
sg3
I164
sg4
S'product164cluster6'
p333
sa(dp334
g2
I2
sg3
I165
sg4
S'product165cluster2'
p335
sa(dp336
g2
I3
sg3
I166
sg4
S'product166cluster3'
p337
sa(dp338
g2
I3
sg3
I167
sg4
S'product167cluster3'
p339
sa(dp340
g2
I17
sg3
I168
sg4
S'product168cluster17'
p341
sa(dp342
g2
I10
sg3
I169
sg4
S'product169cluster10'
p343
sa(dp344
g2
I17
sg3
I170
sg4
S'product170cluster17'
p345
sa(dp346
g2
I9
sg3
I171
sg4
S'product171cluster9'
p347
sa(dp348
g2
I12
sg3
I172
sg4
S'product172cluster12'
p349
sa(dp350
g2
I2
sg3
I173
sg4
S'product173cluster2'
p351
sa(dp352
g2
I2
sg3
I174
sg4
S'product174cluster2'
p353
sa(dp354
g2
I11
sg3
I175
sg4
S'product175cluster11'
p355
sa(dp356
g2
I8
sg3
I176
sg4
S'product176cluster8'
p357
sa(dp358
g2
I11
sg3
I177
sg4
S'product177cluster11'
p359
sa(dp360
g2
I0
sg3
I178
sg4
S'product178cluster0'
p361
sa(dp362
g2
I13
sg3
I179
sg4
S'product179cluster13'
p363
sa(dp364
g2
I11
sg3
I180
sg4
S'product180cluster11'
p365
sa(dp366
g2
I1
sg3
I181
sg4
S'product181cluster1'
p367
sa(dp368
g2
I6
sg3
I182
sg4
S'product182cluster6'
p369
sa(dp370
g2
I3
sg3
I183
sg4
S'product183cluster3'
p371
sa(dp372
g2
I5
sg3
I184
sg4
S'product184cluster5'
p373
sa(dp374
g2
I18
sg3
I185
sg4
S'product185cluster18'
p375
sa(dp376
g2
I4
sg3
I186
sg4
S'product186cluster4'
p377
sa(dp378
g2
I13
sg3
I187
sg4
S'product187cluster13'
p379
sa(dp380
g2
I16
sg3
I188
sg4
S'product188cluster16'
p381
sa(dp382
g2
I0
sg3
I189
sg4
S'product189cluster0'
p383
sa(dp384
g2
I12
sg3
I190
sg4
S'product190cluster12'
p385
sa(dp386
g2
I16
sg3
I191
sg4
S'product191cluster16'
p387
sa(dp388
g2
I3
sg3
I192
sg4
S'product192cluster3'
p389
sa(dp390
g2
I9
sg3
I193
sg4
S'product193cluster9'
p391
sa(dp392
g2
I11
sg3
I194
sg4
S'product194cluster11'
p393
sa(dp394
g2
I1
sg3
I195
sg4
S'product195cluster1'
p395
sa(dp396
g2
I10
sg3
I196
sg4
S'product196cluster10'
p397
sa(dp398
g2
I11
sg3
I197
sg4
S'product197cluster11'
p399
sa(dp400
g2
I0
sg3
I198
sg4
S'product198cluster0'
p401
sa(dp402
g2
I14
sg3
I199
sg4
S'product199cluster14'
p403
sa(dp404
g2
I12
sg3
I200
sg4
S'product200cluster12'
p405
sa(dp406
g2
I2
sg3
I201
sg4
S'product201cluster2'
p407
sa(dp408
g2
I5
sg3
I202
sg4
S'product202cluster5'
p409
sa(dp410
g2
I15
sg3
I203
sg4
S'product203cluster15'
p411
sa(dp412
g2
I6
sg3
I204
sg4
S'product204cluster6'
p413
sa(dp414
g2
I7
sg3
I205
sg4
S'product205cluster7'
p415
sa(dp416
g2
I10
sg3
I206
sg4
S'product206cluster10'
p417
sa(dp418
g2
I19
sg3
I207
sg4
S'product207cluster19'
p419
sa(dp420
g2
I11
sg3
I208
sg4
S'product208cluster11'
p421
sa(dp422
g2
I10
sg3
I209
sg4
S'product209cluster10'
p423
sa(dp424
g2
I7
sg3
I210
sg4
S'product210cluster7'
p425
sa(dp426
g2
I10
sg3
I211
sg4
S'product211cluster10'
p427
sa(dp428
g2
I3
sg3
I212
sg4
S'product212cluster3'
p429
sa(dp430
g2
I10
sg3
I213
sg4
S'product213cluster10'
p431
sa(dp432
g2
I5
sg3
I214
sg4
S'product214cluster5'
p433
sa(dp434
g2
I15
sg3
I215
sg4
S'product215cluster15'
p435
sa(dp436
g2
I3
sg3
I216
sg4
S'product216cluster3'
p437
sa(dp438
g2
I8
sg3
I217
sg4
S'product217cluster8'
p439
sa(dp440
g2
I8
sg3
I218
sg4
S'product218cluster8'
p441
sa(dp442
g2
I13
sg3
I219
sg4
S'product219cluster13'
p443
sa(dp444
g2
I8
sg3
I220
sg4
S'product220cluster8'
p445
sa(dp446
g2
I10
sg3
I221
sg4
S'product221cluster10'
p447
sa(dp448
g2
I14
sg3
I222
sg4
S'product222cluster14'
p449
sa(dp450
g2
I7
sg3
I223
sg4
S'product223cluster7'
p451
sa(dp452
g2
I3
sg3
I224
sg4
S'product224cluster3'
p453
sa(dp454
g2
I2
sg3
I225
sg4
S'product225cluster2'
p455
sa(dp456
g2
I18
sg3
I226
sg4
S'product226cluster18'
p457
sa(dp458
g2
I4
sg3
I227
sg4
S'product227cluster4'
p459
sa(dp460
g2
I12
sg3
I228
sg4
S'product228cluster12'
p461
sa(dp462
g2
I14
sg3
I229
sg4
S'product229cluster14'
p463
sa(dp464
g2
I4
sg3
I230
sg4
S'product230cluster4'
p465
sa(dp466
g2
I0
sg3
I231
sg4
S'product231cluster0'
p467
sa(dp468
g2
I9
sg3
I232
sg4
S'product232cluster9'
p469
sa(dp470
g2
I1
sg3
I233
sg4
S'product233cluster1'
p471
sa(dp472
g2
I16
sg3
I234
sg4
S'product234cluster16'
p473
sa(dp474
g2
I19
sg3
I235
sg4
S'product235cluster19'
p475
sa(dp476
g2
I14
sg3
I236
sg4
S'product236cluster14'
p477
sa(dp478
g2
I14
sg3
I237
sg4
S'product237cluster14'
p479
sa(dp480
g2
I3
sg3
I238
sg4
S'product238cluster3'
p481
sa(dp482
g2
I2
sg3
I239
sg4
S'product239cluster2'
p483
sa(dp484
g2
I8
sg3
I240
sg4
S'product240cluster8'
p485
sa(dp486
g2
I17
sg3
I241
sg4
S'product241cluster17'
p487
sa(dp488
g2
I14
sg3
I242
sg4
S'product242cluster14'
p489
sa(dp490
g2
I10
sg3
I243
sg4
S'product243cluster10'
p491
sa(dp492
g2
I12
sg3
I244
sg4
S'product244cluster12'
p493
sa(dp494
g2
I11
sg3
I245
sg4
S'product245cluster11'
p495
sa(dp496
g2
I5
sg3
I246
sg4
S'product246cluster5'
p497
sa(dp498
g2
I5
sg3
I247
sg4
S'product247cluster5'
p499
sa(dp500
g2
I1
sg3
I248
sg4
S'product248cluster1'
p501
sa(dp502
g2
I11
sg3
I249
sg4
S'product249cluster11'
p503
sa(dp504
g2
I10
sg3
I250
sg4
S'product250cluster10'
p505
sa(dp506
g2
I13
sg3
I251
sg4
S'product251cluster13'
p507
sa(dp508
g2
I13
sg3
I252
sg4
S'product252cluster13'
p509
sa(dp510
g2
I7
sg3
I253
sg4
S'product253cluster7'
p511
sa(dp512
g2
I17
sg3
I254
sg4
S'product254cluster17'
p513
sa(dp514
g2
I5
sg3
I255
sg4
S'product255cluster5'
p515
sa(dp516
g2
I13
sg3
I256
sg4
S'product256cluster13'
p517
sa(dp518
g2
I3
sg3
I257
sg4
S'product257cluster3'
p519
sa(dp520
g2
I19
sg3
I258
sg4
S'product258cluster19'
p521
sa(dp522
g2
I8
sg3
I259
sg4
S'product259cluster8'
p523
sa(dp524
g2
I2
sg3
I260
sg4
S'product260cluster2'
p525
sa(dp526
g2
I10
sg3
I261
sg4
S'product261cluster10'
p527
sa(dp528
g2
I2
sg3
I262
sg4
S'product262cluster2'
p529
sa(dp530
g2
I2
sg3
I263
sg4
S'product263cluster2'
p531
sa(dp532
g2
I2
sg3
I264
sg4
S'product264cluster2'
p533
sa(dp534
g2
I7
sg3
I265
sg4
S'product265cluster7'
p535
sa(dp536
g2
I0
sg3
I266
sg4
S'product266cluster0'
p537
sa(dp538
g2
I13
sg3
I267
sg4
S'product267cluster13'
p539
sa(dp540
g2
I5
sg3
I268
sg4
S'product268cluster5'
p541
sa(dp542
g2
I4
sg3
I269
sg4
S'product269cluster4'
p543
sa(dp544
g2
I15
sg3
I270
sg4
S'product270cluster15'
p545
sa(dp546
g2
I5
sg3
I271
sg4
S'product271cluster5'
p547
sa(dp548
g2
I7
sg3
I272
sg4
S'product272cluster7'
p549
sa(dp550
g2
I14
sg3
I273
sg4
S'product273cluster14'
p551
sa(dp552
g2
I1
sg3
I274
sg4
S'product274cluster1'
p553
sa(dp554
g2
I1
sg3
I275
sg4
S'product275cluster1'
p555
sa(dp556
g2
I16
sg3
I276
sg4
S'product276cluster16'
p557
sa(dp558
g2
I3
sg3
I277
sg4
S'product277cluster3'
p559
sa(dp560
g2
I18
sg3
I278
sg4
S'product278cluster18'
p561
sa(dp562
g2
I9
sg3
I279
sg4
S'product279cluster9'
p563
sa(dp564
g2
I19
sg3
I280
sg4
S'product280cluster19'
p565
sa(dp566
g2
I10
sg3
I281
sg4
S'product281cluster10'
p567
sa(dp568
g2
I11
sg3
I282
sg4
S'product282cluster11'
p569
sa(dp570
g2
I9
sg3
I283
sg4
S'product283cluster9'
p571
sa(dp572
g2
I6
sg3
I284
sg4
S'product284cluster6'
p573
sa(dp574
g2
I6
sg3
I285
sg4
S'product285cluster6'
p575
sa(dp576
g2
I19
sg3
I286
sg4
S'product286cluster19'
p577
sa(dp578
g2
I7
sg3
I287
sg4
S'product287cluster7'
p579
sa(dp580
g2
I15
sg3
I288
sg4
S'product288cluster15'
p581
sa(dp582
g2
I1
sg3
I289
sg4
S'product289cluster1'
p583
sa(dp584
g2
I17
sg3
I290
sg4
S'product290cluster17'
p585
sa(dp586
g2
I9
sg3
I291
sg4
S'product291cluster9'
p587
sa(dp588
g2
I17
sg3
I292
sg4
S'product292cluster17'
p589
sa(dp590
g2
I14
sg3
I293
sg4
S'product293cluster14'
p591
sa(dp592
g2
I10
sg3
I294
sg4
S'product294cluster10'
p593
sa(dp594
g2
I6
sg3
I295
sg4
S'product295cluster6'
p595
sa(dp596
g2
I10
sg3
I296
sg4
S'product296cluster10'
p597
sa(dp598
g2
I11
sg3
I297
sg4
S'product297cluster11'
p599
sa(dp600
g2
I5
sg3
I298
sg4
S'product298cluster5'
p601
sa(dp602
g2
I11
sg3
I299
sg4
S'product299cluster11'
p603
sa(dp604
g2
I2
sg3
I300
sg4
S'product300cluster2'
p605
sa(dp606
g2
I13
sg3
I301
sg4
S'product301cluster13'
p607
sa(dp608
g2
I10
sg3
I302
sg4
S'product302cluster10'
p609
sa(dp610
g2
I5
sg3
I303
sg4
S'product303cluster5'
p611
sa(dp612
g2
I18
sg3
I304
sg4
S'product304cluster18'
p613
sa(dp614
g2
I4
sg3
I305
sg4
S'product305cluster4'
p615
sa(dp616
g2
I8
sg3
I306
sg4
S'product306cluster8'
p617
sa(dp618
g2
I14
sg3
I307
sg4
S'product307cluster14'
p619
sa(dp620
g2
I11
sg3
I308
sg4
S'product308cluster11'
p621
sa(dp622
g2
I2
sg3
I309
sg4
S'product309cluster2'
p623
sa(dp624
g2
I16
sg3
I310
sg4
S'product310cluster16'
p625
sa(dp626
g2
I5
sg3
I311
sg4
S'product311cluster5'
p627
sa(dp628
g2
I9
sg3
I312
sg4
S'product312cluster9'
p629
sa(dp630
g2
I17
sg3
I313
sg4
S'product313cluster17'
p631
sa(dp632
g2
I14
sg3
I314
sg4
S'product314cluster14'
p633
sa(dp634
g2
I1
sg3
I315
sg4
S'product315cluster1'
p635
sa(dp636
g2
I3
sg3
I316
sg4
S'product316cluster3'
p637
sa(dp638
g2
I15
sg3
I317
sg4
S'product317cluster15'
p639
sa(dp640
g2
I15
sg3
I318
sg4
S'product318cluster15'
p641
sa(dp642
g2
I4
sg3
I319
sg4
S'product319cluster4'
p643
sa(dp644
g2
I16
sg3
I320
sg4
S'product320cluster16'
p645
sa(dp646
g2
I11
sg3
I321
sg4
S'product321cluster11'
p647
sa(dp648
g2
I9
sg3
I322
sg4
S'product322cluster9'
p649
sa(dp650
g2
I15
sg3
I323
sg4
S'product323cluster15'
p651
sa(dp652
g2
I16
sg3
I324
sg4
S'product324cluster16'
p653
sa(dp654
g2
I1
sg3
I325
sg4
S'product325cluster1'
p655
sa(dp656
g2
I2
sg3
I326
sg4
S'product326cluster2'
p657
sa(dp658
g2
I12
sg3
I327
sg4
S'product327cluster12'
p659
sa(dp660
g2
I6
sg3
I328
sg4
S'product328cluster6'
p661
sa(dp662
g2
I11
sg3
I329
sg4
S'product329cluster11'
p663
sa(dp664
g2
I14
sg3
I330
sg4
S'product330cluster14'
p665
sa(dp666
g2
I16
sg3
I331
sg4
S'product331cluster16'
p667
sa(dp668
g2
I13
sg3
I332
sg4
S'product332cluster13'
p669
sa(dp670
g2
I3
sg3
I333
sg4
S'product333cluster3'
p671
sa(dp672
g2
I7
sg3
I334
sg4
S'product334cluster7'
p673
sa(dp674
g2
I11
sg3
I335
sg4
S'product335cluster11'
p675
sa(dp676
g2
I9
sg3
I336
sg4
S'product336cluster9'
p677
sa(dp678
g2
I14
sg3
I337
sg4
S'product337cluster14'
p679
sa(dp680
g2
I8
sg3
I338
sg4
S'product338cluster8'
p681
sa(dp682
g2
I3
sg3
I339
sg4
S'product339cluster3'
p683
sa(dp684
g2
I17
sg3
I340
sg4
S'product340cluster17'
p685
sa(dp686
g2
I3
sg3
I341
sg4
S'product341cluster3'
p687
sa(dp688
g2
I2
sg3
I342
sg4
S'product342cluster2'
p689
sa(dp690
g2
I9
sg3
I343
sg4
S'product343cluster9'
p691
sa(dp692
g2
I6
sg3
I344
sg4
S'product344cluster6'
p693
sa(dp694
g2
I1
sg3
I345
sg4
S'product345cluster1'
p695
sa(dp696
g2
I16
sg3
I346
sg4
S'product346cluster16'
p697
sa(dp698
g2
I15
sg3
I347
sg4
S'product347cluster15'
p699
sa(dp700
g2
I11
sg3
I348
sg4
S'product348cluster11'
p701
sa(dp702
g2
I7
sg3
I349
sg4
S'product349cluster7'
p703
sa(dp704
g2
I9
sg3
I350
sg4
S'product350cluster9'
p705
sa(dp706
g2
I2
sg3
I351
sg4
S'product351cluster2'
p707
sa(dp708
g2
I8
sg3
I352
sg4
S'product352cluster8'
p709
sa(dp710
g2
I3
sg3
I353
sg4
S'product353cluster3'
p711
sa(dp712
g2
I14
sg3
I354
sg4
S'product354cluster14'
p713
sa(dp714
g2
I17
sg3
I355
sg4
S'product355cluster17'
p715
sa(dp716
g2
I12
sg3
I356
sg4
S'product356cluster12'
p717
sa(dp718
g2
I0
sg3
I357
sg4
S'product357cluster0'
p719
sa(dp720
g2
I13
sg3
I358
sg4
S'product358cluster13'
p721
sa(dp722
g2
I14
sg3
I359
sg4
S'product359cluster14'
p723
sa(dp724
g2
I4
sg3
I360
sg4
S'product360cluster4'
p725
sa(dp726
g2
I19
sg3
I361
sg4
S'product361cluster19'
p727
sa(dp728
g2
I18
sg3
I362
sg4
S'product362cluster18'
p729
sa(dp730
g2
I9
sg3
I363
sg4
S'product363cluster9'
p731
sa(dp732
g2
I5
sg3
I364
sg4
S'product364cluster5'
p733
sa(dp734
g2
I5
sg3
I365
sg4
S'product365cluster5'
p735
sa(dp736
g2
I4
sg3
I366
sg4
S'product366cluster4'
p737
sa(dp738
g2
I19
sg3
I367
sg4
S'product367cluster19'
p739
sa(dp740
g2
I16
sg3
I368
sg4
S'product368cluster16'
p741
sa(dp742
g2
I7
sg3
I369
sg4
S'product369cluster7'
p743
sa(dp744
g2
I16
sg3
I370
sg4
S'product370cluster16'
p745
sa(dp746
g2
I15
sg3
I371
sg4
S'product371cluster15'
p747
sa(dp748
g2
I8
sg3
I372
sg4
S'product372cluster8'
p749
sa(dp750
g2
I18
sg3
I373
sg4
S'product373cluster18'
p751
sa(dp752
g2
I16
sg3
I374
sg4
S'product374cluster16'
p753
sa(dp754
g2
I2
sg3
I375
sg4
S'product375cluster2'
p755
sa(dp756
g2
I16
sg3
I376
sg4
S'product376cluster16'
p757
sa(dp758
g2
I14
sg3
I377
sg4
S'product377cluster14'
p759
sa(dp760
g2
I7
sg3
I378
sg4
S'product378cluster7'
p761
sa(dp762
g2
I10
sg3
I379
sg4
S'product379cluster10'
p763
sa(dp764
g2
I16
sg3
I380
sg4
S'product380cluster16'
p765
sa(dp766
g2
I18
sg3
I381
sg4
S'product381cluster18'
p767
sa(dp768
g2
I10
sg3
I382
sg4
S'product382cluster10'
p769
sa(dp770
g2
I7
sg3
I383
sg4
S'product383cluster7'
p771
sa(dp772
g2
I11
sg3
I384
sg4
S'product384cluster11'
p773
sa(dp774
g2
I12
sg3
I385
sg4
S'product385cluster12'
p775
sa(dp776
g2
I1
sg3
I386
sg4
S'product386cluster1'
p777
sa(dp778
g2
I18
sg3
I387
sg4
S'product387cluster18'
p779
sa(dp780
g2
I7
sg3
I388
sg4
S'product388cluster7'
p781
sa(dp782
g2
I5
sg3
I389
sg4
S'product389cluster5'
p783
sa(dp784
g2
I5
sg3
I390
sg4
S'product390cluster5'
p785
sa(dp786
g2
I9
sg3
I391
sg4
S'product391cluster9'
p787
sa(dp788
g2
I7
sg3
I392
sg4
S'product392cluster7'
p789
sa(dp790
g2
I6
sg3
I393
sg4
S'product393cluster6'
p791
sa(dp792
g2
I1
sg3
I394
sg4
S'product394cluster1'
p793
sa(dp794
g2
I9
sg3
I395
sg4
S'product395cluster9'
p795
sa(dp796
g2
I17
sg3
I396
sg4
S'product396cluster17'
p797
sa(dp798
g2
I11
sg3
I397
sg4
S'product397cluster11'
p799
sa(dp800
g2
I13
sg3
I398
sg4
S'product398cluster13'
p801
sa(dp802
g2
I1
sg3
I399
sg4
S'product399cluster1'
p803
sa(dp804
g2
I7
sg3
I400
sg4
S'product400cluster7'
p805
sa(dp806
g2
I10
sg3
I401
sg4
S'product401cluster10'
p807
sa(dp808
g2
I0
sg3
I402
sg4
S'product402cluster0'
p809
sa(dp810
g2
I12
sg3
I403
sg4
S'product403cluster12'
p811
sa(dp812
g2
I5
sg3
I404
sg4
S'product404cluster5'
p813
sa(dp814
g2
I4
sg3
I405
sg4
S'product405cluster4'
p815
sa(dp816
g2
I18
sg3
I406
sg4
S'product406cluster18'
p817
sa(dp818
g2
I4
sg3
I407
sg4
S'product407cluster4'
p819
sa(dp820
g2
I1
sg3
I408
sg4
S'product408cluster1'
p821
sa(dp822
g2
I2
sg3
I409
sg4
S'product409cluster2'
p823
sa(dp824
g2
I9
sg3
I410
sg4
S'product410cluster9'
p825
sa(dp826
g2
I1
sg3
I411
sg4
S'product411cluster1'
p827
sa(dp828
g2
I15
sg3
I412
sg4
S'product412cluster15'
p829
sa(dp830
g2
I19
sg3
I413
sg4
S'product413cluster19'
p831
sa(dp832
g2
I12
sg3
I414
sg4
S'product414cluster12'
p833
sa(dp834
g2
I12
sg3
I415
sg4
S'product415cluster12'
p835
sa(dp836
g2
I5
sg3
I416
sg4
S'product416cluster5'
p837
sa(dp838
g2
I14
sg3
I417
sg4
S'product417cluster14'
p839
sa(dp840
g2
I4
sg3
I418
sg4
S'product418cluster4'
p841
sa(dp842
g2
I16
sg3
I419
sg4
S'product419cluster16'
p843
sa(dp844
g2
I2
sg3
I420
sg4
S'product420cluster2'
p845
sa(dp846
g2
I9
sg3
I421
sg4
S'product421cluster9'
p847
sa(dp848
g2
I4
sg3
I422
sg4
S'product422cluster4'
p849
sa(dp850
g2
I2
sg3
I423
sg4
S'product423cluster2'
p851
sa(dp852
g2
I17
sg3
I424
sg4
S'product424cluster17'
p853
sa(dp854
g2
I14
sg3
I425
sg4
S'product425cluster14'
p855
sa(dp856
g2
I10
sg3
I426
sg4
S'product426cluster10'
p857
sa(dp858
g2
I4
sg3
I427
sg4
S'product427cluster4'
p859
sa(dp860
g2
I0
sg3
I428
sg4
S'product428cluster0'
p861
sa(dp862
g2
I8
sg3
I429
sg4
S'product429cluster8'
p863
sa(dp864
g2
I5
sg3
I430
sg4
S'product430cluster5'
p865
sa(dp866
g2
I6
sg3
I431
sg4
S'product431cluster6'
p867
sa(dp868
g2
I13
sg3
I432
sg4
S'product432cluster13'
p869
sa(dp870
g2
I14
sg3
I433
sg4
S'product433cluster14'
p871
sa(dp872
g2
I4
sg3
I434
sg4
S'product434cluster4'
p873
sa(dp874
g2
I11
sg3
I435
sg4
S'product435cluster11'
p875
sa(dp876
g2
I8
sg3
I436
sg4
S'product436cluster8'
p877
sa(dp878
g2
I1
sg3
I437
sg4
S'product437cluster1'
p879
sa(dp880
g2
I15
sg3
I438
sg4
S'product438cluster15'
p881
sa(dp882
g2
I4
sg3
I439
sg4
S'product439cluster4'
p883
sa(dp884
g2
I19
sg3
I440
sg4
S'product440cluster19'
p885
sa(dp886
g2
I9
sg3
I441
sg4
S'product441cluster9'
p887
sa(dp888
g2
I8
sg3
I442
sg4
S'product442cluster8'
p889
sa(dp890
g2
I6
sg3
I443
sg4
S'product443cluster6'
p891
sa(dp892
g2
I13
sg3
I444
sg4
S'product444cluster13'
p893
sa(dp894
g2
I19
sg3
I445
sg4
S'product445cluster19'
p895
sa(dp896
g2
I2
sg3
I446
sg4
S'product446cluster2'
p897
sa(dp898
g2
I12
sg3
I447
sg4
S'product447cluster12'
p899
sa(dp900
g2
I15
sg3
I448
sg4
S'product448cluster15'
p901
sa(dp902
g2
I11
sg3
I449
sg4
S'product449cluster11'
p903
sa(dp904
g2
I9
sg3
I450
sg4
S'product450cluster9'
p905
sa(dp906
g2
I9
sg3
I451
sg4
S'product451cluster9'
p907
sa(dp908
g2
I0
sg3
I452
sg4
S'product452cluster0'
p909
sa(dp910
g2
I16
sg3
I453
sg4
S'product453cluster16'
p911
sa(dp912
g2
I17
sg3
I454
sg4
S'product454cluster17'
p913
sa(dp914
g2
I12
sg3
I455
sg4
S'product455cluster12'
p915
sa(dp916
g2
I3
sg3
I456
sg4
S'product456cluster3'
p917
sa(dp918
g2
I19
sg3
I457
sg4
S'product457cluster19'
p919
sa(dp920
g2
I14
sg3
I458
sg4
S'product458cluster14'
p921
sa(dp922
g2
I10
sg3
I459
sg4
S'product459cluster10'
p923
sa(dp924
g2
I4
sg3
I460
sg4
S'product460cluster4'
p925
sa(dp926
g2
I3
sg3
I461
sg4
S'product461cluster3'
p927
sa(dp928
g2
I3
sg3
I462
sg4
S'product462cluster3'
p929
sa(dp930
g2
I13
sg3
I463
sg4
S'product463cluster13'
p931
sa(dp932
g2
I15
sg3
I464
sg4
S'product464cluster15'
p933
sa(dp934
g2
I2
sg3
I465
sg4
S'product465cluster2'
p935
sa(dp936
g2
I17
sg3
I466
sg4
S'product466cluster17'
p937
sa(dp938
g2
I5
sg3
I467
sg4
S'product467cluster5'
p939
sa(dp940
g2
I7
sg3
I468
sg4
S'product468cluster7'
p941
sa(dp942
g2
I17
sg3
I469
sg4
S'product469cluster17'
p943
sa(dp944
g2
I4
sg3
I470
sg4
S'product470cluster4'
p945
sa(dp946
g2
I4
sg3
I471
sg4
S'product471cluster4'
p947
sa(dp948
g2
I2
sg3
I472
sg4
S'product472cluster2'
p949
sa(dp950
g2
I1
sg3
I473
sg4
S'product473cluster1'
p951
sa(dp952
g2
I0
sg3
I474
sg4
S'product474cluster0'
p953
sa(dp954
g2
I17
sg3
I475
sg4
S'product475cluster17'
p955
sa(dp956
g2
I10
sg3
I476
sg4
S'product476cluster10'
p957
sa(dp958
g2
I17
sg3
I477
sg4
S'product477cluster17'
p959
sa(dp960
g2
I3
sg3
I478
sg4
S'product478cluster3'
p961
sa(dp962
g2
I8
sg3
I479
sg4
S'product479cluster8'
p963
sa(dp964
g2
I17
sg3
I480
sg4
S'product480cluster17'
p965
sa(dp966
g2
I9
sg3
I481
sg4
S'product481cluster9'
p967
sa(dp968
g2
I12
sg3
I482
sg4
S'product482cluster12'
p969
sa(dp970
g2
I17
sg3
I483
sg4
S'product483cluster17'
p971
sa(dp972
g2
I16
sg3
I484
sg4
S'product484cluster16'
p973
sa(dp974
g2
I11
sg3
I485
sg4
S'product485cluster11'
p975
sa(dp976
g2
I7
sg3
I486
sg4
S'product486cluster7'
p977
sa(dp978
g2
I12
sg3
I487
sg4
S'product487cluster12'
p979
sa(dp980
g2
I3
sg3
I488
sg4
S'product488cluster3'
p981
sa(dp982
g2
I13
sg3
I489
sg4
S'product489cluster13'
p983
sa(dp984
g2
I18
sg3
I490
sg4
S'product490cluster18'
p985
sa(dp986
g2
I7
sg3
I491
sg4
S'product491cluster7'
p987
sa(dp988
g2
I6
sg3
I492
sg4
S'product492cluster6'
p989
sa(dp990
g2
I16
sg3
I493
sg4
S'product493cluster16'
p991
sa(dp992
g2
I11
sg3
I494
sg4
S'product494cluster11'
p993
sa(dp994
g2
I6
sg3
I495
sg4
S'product495cluster6'
p995
sa(dp996
g2
I0
sg3
I496
sg4
S'product496cluster0'
p997
sa(dp998
g2
I2
sg3
I497
sg4
S'product497cluster2'
p999
sa(dp1000
g2
I16
sg3
I498
sg4
S'product498cluster16'
p1001
sa(dp1002
g2
I3
sg3
I499
sg4
S'product499cluster3'
p1003
sa(dp1004
g2
I9
sg3
I500
sg4
S'product500cluster9'
p1005
sa(dp1006
g2
I0
sg3
I501
sg4
S'product501cluster0'
p1007
sa(dp1008
g2
I9
sg3
I502
sg4
S'product502cluster9'
p1009
sa(dp1010
g2
I14
sg3
I503
sg4
S'product503cluster14'
p1011
sa(dp1012
g2
I5
sg3
I504
sg4
S'product504cluster5'
p1013
sa(dp1014
g2
I1
sg3
I505
sg4
S'product505cluster1'
p1015
sa(dp1016
g2
I18
sg3
I506
sg4
S'product506cluster18'
p1017
sa(dp1018
g2
I9
sg3
I507
sg4
S'product507cluster9'
p1019
sa(dp1020
g2
I8
sg3
I508
sg4
S'product508cluster8'
p1021
sa(dp1022
g2
I9
sg3
I509
sg4
S'product509cluster9'
p1023
sa(dp1024
g2
I13
sg3
I510
sg4
S'product510cluster13'
p1025
sa(dp1026
g2
I12
sg3
I511
sg4
S'product511cluster12'
p1027
sa(dp1028
g2
I2
sg3
I512
sg4
S'product512cluster2'
p1029
sa(dp1030
g2
I16
sg3
I513
sg4
S'product513cluster16'
p1031
sa(dp1032
g2
I11
sg3
I514
sg4
S'product514cluster11'
p1033
sa(dp1034
g2
I9
sg3
I515
sg4
S'product515cluster9'
p1035
sa(dp1036
g2
I15
sg3
I516
sg4
S'product516cluster15'
p1037
sa(dp1038
g2
I1
sg3
I517
sg4
S'product517cluster1'
p1039
sa(dp1040
g2
I0
sg3
I518
sg4
S'product518cluster0'
p1041
sa(dp1042
g2
I11
sg3
I519
sg4
S'product519cluster11'
p1043
sa(dp1044
g2
I19
sg3
I520
sg4
S'product520cluster19'
p1045
sa(dp1046
g2
I6
sg3
I521
sg4
S'product521cluster6'
p1047
sa(dp1048
g2
I11
sg3
I522
sg4
S'product522cluster11'
p1049
sa(dp1050
g2
I4
sg3
I523
sg4
S'product523cluster4'
p1051
sa(dp1052
g2
I12
sg3
I524
sg4
S'product524cluster12'
p1053
sa(dp1054
g2
I4
sg3
I525
sg4
S'product525cluster4'
p1055
sa(dp1056
g2
I13
sg3
I526
sg4
S'product526cluster13'
p1057
sa(dp1058
g2
I4
sg3
I527
sg4
S'product527cluster4'
p1059
sa(dp1060
g2
I13
sg3
I528
sg4
S'product528cluster13'
p1061
sa(dp1062
g2
I19
sg3
I529
sg4
S'product529cluster19'
p1063
sa(dp1064
g2
I9
sg3
I530
sg4
S'product530cluster9'
p1065
sa(dp1066
g2
I1
sg3
I531
sg4
S'product531cluster1'
p1067
sa(dp1068
g2
I7
sg3
I532
sg4
S'product532cluster7'
p1069
sa(dp1070
g2
I1
sg3
I533
sg4
S'product533cluster1'
p1071
sa(dp1072
g2
I15
sg3
I534
sg4
S'product534cluster15'
p1073
sa(dp1074
g2
I13
sg3
I535
sg4
S'product535cluster13'
p1075
sa(dp1076
g2
I19
sg3
I536
sg4
S'product536cluster19'
p1077
sa(dp1078
g2
I19
sg3
I537
sg4
S'product537cluster19'
p1079
sa(dp1080
g2
I16
sg3
I538
sg4
S'product538cluster16'
p1081
sa(dp1082
g2
I9
sg3
I539
sg4
S'product539cluster9'
p1083
sa(dp1084
g2
I10
sg3
I540
sg4
S'product540cluster10'
p1085
sa(dp1086
g2
I2
sg3
I541
sg4
S'product541cluster2'
p1087
sa(dp1088
g2
I2
sg3
I542
sg4
S'product542cluster2'
p1089
sa(dp1090
g2
I3
sg3
I543
sg4
S'product543cluster3'
p1091
sa(dp1092
g2
I2
sg3
I544
sg4
S'product544cluster2'
p1093
sa(dp1094
g2
I7
sg3
I545
sg4
S'product545cluster7'
p1095
sa(dp1096
g2
I15
sg3
I546
sg4
S'product546cluster15'
p1097
sa(dp1098
g2
I11
sg3
I547
sg4
S'product547cluster11'
p1099
sa(dp1100
g2
I3
sg3
I548
sg4
S'product548cluster3'
p1101
sa(dp1102
g2
I14
sg3
I549
sg4
S'product549cluster14'
p1103
sa(dp1104
g2
I19
sg3
I550
sg4
S'product550cluster19'
p1105
sa(dp1106
g2
I2
sg3
I551
sg4
S'product551cluster2'
p1107
sa(dp1108
g2
I9
sg3
I552
sg4
S'product552cluster9'
p1109
sa(dp1110
g2
I18
sg3
I553
sg4
S'product553cluster18'
p1111
sa(dp1112
g2
I13
sg3
I554
sg4
S'product554cluster13'
p1113
sa(dp1114
g2
I3
sg3
I555
sg4
S'product555cluster3'
p1115
sa(dp1116
g2
I5
sg3
I556
sg4
S'product556cluster5'
p1117
sa(dp1118
g2
I0
sg3
I557
sg4
S'product557cluster0'
p1119
sa(dp1120
g2
I2
sg3
I558
sg4
S'product558cluster2'
p1121
sa(dp1122
g2
I1
sg3
I559
sg4
S'product559cluster1'
p1123
sa(dp1124
g2
I1
sg3
I560
sg4
S'product560cluster1'
p1125
sa(dp1126
g2
I0
sg3
I561
sg4
S'product561cluster0'
p1127
sa(dp1128
g2
I16
sg3
I562
sg4
S'product562cluster16'
p1129
sa(dp1130
g2
I15
sg3
I563
sg4
S'product563cluster15'
p1131
sa(dp1132
g2
I9
sg3
I564
sg4
S'product564cluster9'
p1133
sa(dp1134
g2
I6
sg3
I565
sg4
S'product565cluster6'
p1135
sa(dp1136
g2
I9
sg3
I566
sg4
S'product566cluster9'
p1137
sa(dp1138
g2
I4
sg3
I567
sg4
S'product567cluster4'
p1139
sa(dp1140
g2
I19
sg3
I568
sg4
S'product568cluster19'
p1141
sa(dp1142
g2
I17
sg3
I569
sg4
S'product569cluster17'
p1143
sa(dp1144
g2
I10
sg3
I570
sg4
S'product570cluster10'
p1145
sa(dp1146
g2
I11
sg3
I571
sg4
S'product571cluster11'
p1147
sa(dp1148
g2
I3
sg3
I572
sg4
S'product572cluster3'
p1149
sa(dp1150
g2
I14
sg3
I573
sg4
S'product573cluster14'
p1151
sa(dp1152
g2
I13
sg3
I574
sg4
S'product574cluster13'
p1153
sa(dp1154
g2
I16
sg3
I575
sg4
S'product575cluster16'
p1155
sa(dp1156
g2
I19
sg3
I576
sg4
S'product576cluster19'
p1157
sa(dp1158
g2
I12
sg3
I577
sg4
S'product577cluster12'
p1159
sa(dp1160
g2
I9
sg3
I578
sg4
S'product578cluster9'
p1161
sa(dp1162
g2
I12
sg3
I579
sg4
S'product579cluster12'
p1163
sa(dp1164
g2
I11
sg3
I580
sg4
S'product580cluster11'
p1165
sa(dp1166
g2
I2
sg3
I581
sg4
S'product581cluster2'
p1167
sa(dp1168
g2
I8
sg3
I582
sg4
S'product582cluster8'
p1169
sa(dp1170
g2
I8
sg3
I583
sg4
S'product583cluster8'
p1171
sa(dp1172
g2
I14
sg3
I584
sg4
S'product584cluster14'
p1173
sa(dp1174
g2
I12
sg3
I585
sg4
S'product585cluster12'
p1175
sa(dp1176
g2
I9
sg3
I586
sg4
S'product586cluster9'
p1177
sa(dp1178
g2
I14
sg3
I587
sg4
S'product587cluster14'
p1179
sa(dp1180
g2
I6
sg3
I588
sg4
S'product588cluster6'
p1181
sa(dp1182
g2
I11
sg3
I589
sg4
S'product589cluster11'
p1183
sa(dp1184
g2
I0
sg3
I590
sg4
S'product590cluster0'
p1185
sa(dp1186
g2
I16
sg3
I591
sg4
S'product591cluster16'
p1187
sa(dp1188
g2
I17
sg3
I592
sg4
S'product592cluster17'
p1189
sa(dp1190
g2
I11
sg3
I593
sg4
S'product593cluster11'
p1191
sa(dp1192
g2
I2
sg3
I594
sg4
S'product594cluster2'
p1193
sa(dp1194
g2
I3
sg3
I595
sg4
S'product595cluster3'
p1195
sa(dp1196
g2
I3
sg3
I596
sg4
S'product596cluster3'
p1197
sa(dp1198
g2
I2
sg3
I597
sg4
S'product597cluster2'
p1199
sa(dp1200
g2
I7
sg3
I598
sg4
S'product598cluster7'
p1201
sa(dp1202
g2
I6
sg3
I599
sg4
S'product599cluster6'
p1203
sa(dp1204
g2
I6
sg3
I600
sg4
S'product600cluster6'
p1205
sa(dp1206
g2
I5
sg3
I601
sg4
S'product601cluster5'
p1207
sa(dp1208
g2
I2
sg3
I602
sg4
S'product602cluster2'
p1209
sa(dp1210
g2
I8
sg3
I603
sg4
S'product603cluster8'
p1211
sa(dp1212
g2
I9
sg3
I604
sg4
S'product604cluster9'
p1213
sa(dp1214
g2
I3
sg3
I605
sg4
S'product605cluster3'
p1215
sa(dp1216
g2
I0
sg3
I606
sg4
S'product606cluster0'
p1217
sa(dp1218
g2
I17
sg3
I607
sg4
S'product607cluster17'
p1219
sa(dp1220
g2
I10
sg3
I608
sg4
S'product608cluster10'
p1221
sa(dp1222
g2
I7
sg3
I609
sg4
S'product609cluster7'
p1223
sa(dp1224
g2
I6
sg3
I610
sg4
S'product610cluster6'
p1225
sa(dp1226
g2
I2
sg3
I611
sg4
S'product611cluster2'
p1227
sa(dp1228
g2
I7
sg3
I612
sg4
S'product612cluster7'
p1229
sa(dp1230
g2
I2
sg3
I613
sg4
S'product613cluster2'
p1231
sa(dp1232
g2
I9
sg3
I614
sg4
S'product614cluster9'
p1233
sa(dp1234
g2
I12
sg3
I615
sg4
S'product615cluster12'
p1235
sa(dp1236
g2
I13
sg3
I616
sg4
S'product616cluster13'
p1237
sa(dp1238
g2
I0
sg3
I617
sg4
S'product617cluster0'
p1239
sa(dp1240
g2
I8
sg3
I618
sg4
S'product618cluster8'
p1241
sa(dp1242
g2
I15
sg3
I619
sg4
S'product619cluster15'
p1243
sa(dp1244
g2
I7
sg3
I620
sg4
S'product620cluster7'
p1245
sa(dp1246
g2
I19
sg3
I621
sg4
S'product621cluster19'
p1247
sa(dp1248
g2
I11
sg3
I622
sg4
S'product622cluster11'
p1249
sa(dp1250
g2
I1
sg3
I623
sg4
S'product623cluster1'
p1251
sa(dp1252
g2
I12
sg3
I624
sg4
S'product624cluster12'
p1253
sa(dp1254
g2
I5
sg3
I625
sg4
S'product625cluster5'
p1255
sa(dp1256
g2
I10
sg3
I626
sg4
S'product626cluster10'
p1257
sa(dp1258
g2
I3
sg3
I627
sg4
S'product627cluster3'
p1259
sa(dp1260
g2
I6
sg3
I628
sg4
S'product628cluster6'
p1261
sa(dp1262
g2
I7
sg3
I629
sg4
S'product629cluster7'
p1263
sa(dp1264
g2
I2
sg3
I630
sg4
S'product630cluster2'
p1265
sa(dp1266
g2
I13
sg3
I631
sg4
S'product631cluster13'
p1267
sa(dp1268
g2
I19
sg3
I632
sg4
S'product632cluster19'
p1269
sa(dp1270
g2
I15
sg3
I633
sg4
S'product633cluster15'
p1271
sa(dp1272
g2
I8
sg3
I634
sg4
S'product634cluster8'
p1273
sa(dp1274
g2
I10
sg3
I635
sg4
S'product635cluster10'
p1275
sa(dp1276
g2
I16
sg3
I636
sg4
S'product636cluster16'
p1277
sa(dp1278
g2
I6
sg3
I637
sg4
S'product637cluster6'
p1279
sa(dp1280
g2
I1
sg3
I638
sg4
S'product638cluster1'
p1281
sa(dp1282
g2
I12
sg3
I639
sg4
S'product639cluster12'
p1283
sa(dp1284
g2
I4
sg3
I640
sg4
S'product640cluster4'
p1285
sa(dp1286
g2
I7
sg3
I641
sg4
S'product641cluster7'
p1287
sa(dp1288
g2
I3
sg3
I642
sg4
S'product642cluster3'
p1289
sa(dp1290
g2
I15
sg3
I643
sg4
S'product643cluster15'
p1291
sa(dp1292
g2
I6
sg3
I644
sg4
S'product644cluster6'
p1293
sa(dp1294
g2
I16
sg3
I645
sg4
S'product645cluster16'
p1295
sa(dp1296
g2
I6
sg3
I646
sg4
S'product646cluster6'
p1297
sa(dp1298
g2
I0
sg3
I647
sg4
S'product647cluster0'
p1299
sa(dp1300
g2
I17
sg3
I648
sg4
S'product648cluster17'
p1301
sa(dp1302
g2
I9
sg3
I649
sg4
S'product649cluster9'
p1303
sa(dp1304
g2
I5
sg3
I650
sg4
S'product650cluster5'
p1305
sa(dp1306
g2
I7
sg3
I651
sg4
S'product651cluster7'
p1307
sa(dp1308
g2
I17
sg3
I652
sg4
S'product652cluster17'
p1309
sa(dp1310
g2
I6
sg3
I653
sg4
S'product653cluster6'
p1311
sa(dp1312
g2
I12
sg3
I654
sg4
S'product654cluster12'
p1313
sa(dp1314
g2
I11
sg3
I655
sg4
S'product655cluster11'
p1315
sa(dp1316
g2
I7
sg3
I656
sg4
S'product656cluster7'
p1317
sa(dp1318
g2
I15
sg3
I657
sg4
S'product657cluster15'
p1319
sa(dp1320
g2
I15
sg3
I658
sg4
S'product658cluster15'
p1321
sa(dp1322
g2
I8
sg3
I659
sg4
S'product659cluster8'
p1323
sa(dp1324
g2
I1
sg3
I660
sg4
S'product660cluster1'
p1325
sa(dp1326
g2
I14
sg3
I661
sg4
S'product661cluster14'
p1327
sa(dp1328
g2
I14
sg3
I662
sg4
S'product662cluster14'
p1329
sa(dp1330
g2
I5
sg3
I663
sg4
S'product663cluster5'
p1331
sa(dp1332
g2
I12
sg3
I664
sg4
S'product664cluster12'
p1333
sa(dp1334
g2
I12
sg3
I665
sg4
S'product665cluster12'
p1335
sa(dp1336
g2
I11
sg3
I666
sg4
S'product666cluster11'
p1337
sa(dp1338
g2
I6
sg3
I667
sg4
S'product667cluster6'
p1339
sa(dp1340
g2
I16
sg3
I668
sg4
S'product668cluster16'
p1341
sa(dp1342
g2
I12
sg3
I669
sg4
S'product669cluster12'
p1343
sa(dp1344
g2
I18
sg3
I670
sg4
S'product670cluster18'
p1345
sa(dp1346
g2
I6
sg3
I671
sg4
S'product671cluster6'
p1347
sa(dp1348
g2
I15
sg3
I672
sg4
S'product672cluster15'
p1349
sa(dp1350
g2
I17
sg3
I673
sg4
S'product673cluster17'
p1351
sa(dp1352
g2
I17
sg3
I674
sg4
S'product674cluster17'
p1353
sa(dp1354
g2
I19
sg3
I675
sg4
S'product675cluster19'
p1355
sa(dp1356
g2
I18
sg3
I676
sg4
S'product676cluster18'
p1357
sa(dp1358
g2
I17
sg3
I677
sg4
S'product677cluster17'
p1359
sa(dp1360
g2
I0
sg3
I678
sg4
S'product678cluster0'
p1361
sa(dp1362
g2
I15
sg3
I679
sg4
S'product679cluster15'
p1363
sa(dp1364
g2
I1
sg3
I680
sg4
S'product680cluster1'
p1365
sa(dp1366
g2
I8
sg3
I681
sg4
S'product681cluster8'
p1367
sa(dp1368
g2
I7
sg3
I682
sg4
S'product682cluster7'
p1369
sa(dp1370
g2
I18
sg3
I683
sg4
S'product683cluster18'
p1371
sa(dp1372
g2
I19
sg3
I684
sg4
S'product684cluster19'
p1373
sa(dp1374
g2
I6
sg3
I685
sg4
S'product685cluster6'
p1375
sa(dp1376
g2
I2
sg3
I686
sg4
S'product686cluster2'
p1377
sa(dp1378
g2
I8
sg3
I687
sg4
S'product687cluster8'
p1379
sa(dp1380
g2
I10
sg3
I688
sg4
S'product688cluster10'
p1381
sa(dp1382
g2
I15
sg3
I689
sg4
S'product689cluster15'
p1383
sa(dp1384
g2
I12
sg3
I690
sg4
S'product690cluster12'
p1385
sa(dp1386
g2
I8
sg3
I691
sg4
S'product691cluster8'
p1387
sa(dp1388
g2
I14
sg3
I692
sg4
S'product692cluster14'
p1389
sa(dp1390
g2
I2
sg3
I693
sg4
S'product693cluster2'
p1391
sa(dp1392
g2
I17
sg3
I694
sg4
S'product694cluster17'
p1393
sa(dp1394
g2
I4
sg3
I695
sg4
S'product695cluster4'
p1395
sa(dp1396
g2
I6
sg3
I696
sg4
S'product696cluster6'
p1397
sa(dp1398
g2
I17
sg3
I697
sg4
S'product697cluster17'
p1399
sa(dp1400
g2
I10
sg3
I698
sg4
S'product698cluster10'
p1401
sa(dp1402
g2
I12
sg3
I699
sg4
S'product699cluster12'
p1403
sa(dp1404
g2
I11
sg3
I700
sg4
S'product700cluster11'
p1405
sa(dp1406
g2
I13
sg3
I701
sg4
S'product701cluster13'
p1407
sa(dp1408
g2
I14
sg3
I702
sg4
S'product702cluster14'
p1409
sa(dp1410
g2
I2
sg3
I703
sg4
S'product703cluster2'
p1411
sa(dp1412
g2
I5
sg3
I704
sg4
S'product704cluster5'
p1413
sa(dp1414
g2
I11
sg3
I705
sg4
S'product705cluster11'
p1415
sa(dp1416
g2
I9
sg3
I706
sg4
S'product706cluster9'
p1417
sa(dp1418
g2
I2
sg3
I707
sg4
S'product707cluster2'
p1419
sa(dp1420
g2
I15
sg3
I708
sg4
S'product708cluster15'
p1421
sa(dp1422
g2
I15
sg3
I709
sg4
S'product709cluster15'
p1423
sa(dp1424
g2
I11
sg3
I710
sg4
S'product710cluster11'
p1425
sa(dp1426
g2
I9
sg3
I711
sg4
S'product711cluster9'
p1427
sa(dp1428
g2
I14
sg3
I712
sg4
S'product712cluster14'
p1429
sa(dp1430
g2
I16
sg3
I713
sg4
S'product713cluster16'
p1431
sa(dp1432
g2
I14
sg3
I714
sg4
S'product714cluster14'
p1433
sa(dp1434
g2
I9
sg3
I715
sg4
S'product715cluster9'
p1435
sa(dp1436
g2
I13
sg3
I716
sg4
S'product716cluster13'
p1437
sa(dp1438
g2
I17
sg3
I717
sg4
S'product717cluster17'
p1439
sa(dp1440
g2
I10
sg3
I718
sg4
S'product718cluster10'
p1441
sa(dp1442
g2
I3
sg3
I719
sg4
S'product719cluster3'
p1443
sa(dp1444
g2
I8
sg3
I720
sg4
S'product720cluster8'
p1445
sa(dp1446
g2
I8
sg3
I721
sg4
S'product721cluster8'
p1447
sa(dp1448
g2
I9
sg3
I722
sg4
S'product722cluster9'
p1449
sa(dp1450
g2
I3
sg3
I723
sg4
S'product723cluster3'
p1451
sa(dp1452
g2
I15
sg3
I724
sg4
S'product724cluster15'
p1453
sa(dp1454
g2
I7
sg3
I725
sg4
S'product725cluster7'
p1455
sa(dp1456
g2
I1
sg3
I726
sg4
S'product726cluster1'
p1457
sa(dp1458
g2
I2
sg3
I727
sg4
S'product727cluster2'
p1459
sa(dp1460
g2
I5
sg3
I728
sg4
S'product728cluster5'
p1461
sa(dp1462
g2
I0
sg3
I729
sg4
S'product729cluster0'
p1463
sa(dp1464
g2
I7
sg3
I730
sg4
S'product730cluster7'
p1465
sa(dp1466
g2
I12
sg3
I731
sg4
S'product731cluster12'
p1467
sa(dp1468
g2
I12
sg3
I732
sg4
S'product732cluster12'
p1469
sa(dp1470
g2
I13
sg3
I733
sg4
S'product733cluster13'
p1471
sa(dp1472
g2
I0
sg3
I734
sg4
S'product734cluster0'
p1473
sa(dp1474
g2
I7
sg3
I735
sg4
S'product735cluster7'
p1475
sa(dp1476
g2
I18
sg3
I736
sg4
S'product736cluster18'
p1477
sa(dp1478
g2
I8
sg3
I737
sg4
S'product737cluster8'
p1479
sa(dp1480
g2
I6
sg3
I738
sg4
S'product738cluster6'
p1481
sa(dp1482
g2
I13
sg3
I739
sg4
S'product739cluster13'
p1483
sa(dp1484
g2
I19
sg3
I740
sg4
S'product740cluster19'
p1485
sa(dp1486
g2
I14
sg3
I741
sg4
S'product741cluster14'
p1487
sa(dp1488
g2
I7
sg3
I742
sg4
S'product742cluster7'
p1489
sa(dp1490
g2
I2
sg3
I743
sg4
S'product743cluster2'
p1491
sa(dp1492
g2
I1
sg3
I744
sg4
S'product744cluster1'
p1493
sa(dp1494
g2
I8
sg3
I745
sg4
S'product745cluster8'
p1495
sa(dp1496
g2
I19
sg3
I746
sg4
S'product746cluster19'
p1497
sa(dp1498
g2
I3
sg3
I747
sg4
S'product747cluster3'
p1499
sa(dp1500
g2
I1
sg3
I748
sg4
S'product748cluster1'
p1501
sa(dp1502
g2
I6
sg3
I749
sg4
S'product749cluster6'
p1503
sa(dp1504
g2
I10
sg3
I750
sg4
S'product750cluster10'
p1505
sa(dp1506
g2
I4
sg3
I751
sg4
S'product751cluster4'
p1507
sa(dp1508
g2
I15
sg3
I752
sg4
S'product752cluster15'
p1509
sa(dp1510
g2
I13
sg3
I753
sg4
S'product753cluster13'
p1511
sa(dp1512
g2
I7
sg3
I754
sg4
S'product754cluster7'
p1513
sa(dp1514
g2
I1
sg3
I755
sg4
S'product755cluster1'
p1515
sa(dp1516
g2
I6
sg3
I756
sg4
S'product756cluster6'
p1517
sa(dp1518
g2
I8
sg3
I757
sg4
S'product757cluster8'
p1519
sa(dp1520
g2
I1
sg3
I758
sg4
S'product758cluster1'
p1521
sa(dp1522
g2
I2
sg3
I759
sg4
S'product759cluster2'
p1523
sa(dp1524
g2
I17
sg3
I760
sg4
S'product760cluster17'
p1525
sa(dp1526
g2
I17
sg3
I761
sg4
S'product761cluster17'
p1527
sa(dp1528
g2
I9
sg3
I762
sg4
S'product762cluster9'
p1529
sa(dp1530
g2
I17
sg3
I763
sg4
S'product763cluster17'
p1531
sa(dp1532
g2
I19
sg3
I764
sg4
S'product764cluster19'
p1533
sa(dp1534
g2
I10
sg3
I765
sg4
S'product765cluster10'
p1535
sa(dp1536
g2
I11
sg3
I766
sg4
S'product766cluster11'
p1537
sa(dp1538
g2
I18
sg3
I767
sg4
S'product767cluster18'
p1539
sa(dp1540
g2
I17
sg3
I768
sg4
S'product768cluster17'
p1541
sa(dp1542
g2
I9
sg3
I769
sg4
S'product769cluster9'
p1543
sa(dp1544
g2
I6
sg3
I770
sg4
S'product770cluster6'
p1545
sa(dp1546
g2
I7
sg3
I771
sg4
S'product771cluster7'
p1547
sa(dp1548
g2
I12
sg3
I772
sg4
S'product772cluster12'
p1549
sa(dp1550
g2
I4
sg3
I773
sg4
S'product773cluster4'
p1551
sa(dp1552
g2
I16
sg3
I774
sg4
S'product774cluster16'
p1553
sa(dp1554
g2
I7
sg3
I775
sg4
S'product775cluster7'
p1555
sa(dp1556
g2
I2
sg3
I776
sg4
S'product776cluster2'
p1557
sa(dp1558
g2
I6
sg3
I777
sg4
S'product777cluster6'
p1559
sa(dp1560
g2
I4
sg3
I778
sg4
S'product778cluster4'
p1561
sa(dp1562
g2
I13
sg3
I779
sg4
S'product779cluster13'
p1563
sa(dp1564
g2
I3
sg3
I780
sg4
S'product780cluster3'
p1565
sa(dp1566
g2
I5
sg3
I781
sg4
S'product781cluster5'
p1567
sa(dp1568
g2
I10
sg3
I782
sg4
S'product782cluster10'
p1569
sa(dp1570
g2
I19
sg3
I783
sg4
S'product783cluster19'
p1571
sa(dp1572
g2
I10
sg3
I784
sg4
S'product784cluster10'
p1573
sa(dp1574
g2
I8
sg3
I785
sg4
S'product785cluster8'
p1575
sa(dp1576
g2
I12
sg3
I786
sg4
S'product786cluster12'
p1577
sa(dp1578
g2
I7
sg3
I787
sg4
S'product787cluster7'
p1579
sa(dp1580
g2
I9
sg3
I788
sg4
S'product788cluster9'
p1581
sa(dp1582
g2
I2
sg3
I789
sg4
S'product789cluster2'
p1583
sa(dp1584
g2
I4
sg3
I790
sg4
S'product790cluster4'
p1585
sa(dp1586
g2
I18
sg3
I791
sg4
S'product791cluster18'
p1587
sa(dp1588
g2
I15
sg3
I792
sg4
S'product792cluster15'
p1589
sa(dp1590
g2
I17
sg3
I793
sg4
S'product793cluster17'
p1591
sa(dp1592
g2
I9
sg3
I794
sg4
S'product794cluster9'
p1593
sa(dp1594
g2
I5
sg3
I795
sg4
S'product795cluster5'
p1595
sa(dp1596
g2
I10
sg3
I796
sg4
S'product796cluster10'
p1597
sa(dp1598
g2
I8
sg3
I797
sg4
S'product797cluster8'
p1599
sa(dp1600
g2
I0
sg3
I798
sg4
S'product798cluster0'
p1601
sa(dp1602
g2
I3
sg3
I799
sg4
S'product799cluster3'
p1603
sa(dp1604
g2
I9
sg3
I800
sg4
S'product800cluster9'
p1605
sa(dp1606
g2
I11
sg3
I801
sg4
S'product801cluster11'
p1607
sa(dp1608
g2
I2
sg3
I802
sg4
S'product802cluster2'
p1609
sa(dp1610
g2
I3
sg3
I803
sg4
S'product803cluster3'
p1611
sa(dp1612
g2
I0
sg3
I804
sg4
S'product804cluster0'
p1613
sa(dp1614
g2
I2
sg3
I805
sg4
S'product805cluster2'
p1615
sa(dp1616
g2
I14
sg3
I806
sg4
S'product806cluster14'
p1617
sa(dp1618
g2
I13
sg3
I807
sg4
S'product807cluster13'
p1619
sa(dp1620
g2
I3
sg3
I808
sg4
S'product808cluster3'
p1621
sa(dp1622
g2
I1
sg3
I809
sg4
S'product809cluster1'
p1623
sa(dp1624
g2
I0
sg3
I810
sg4
S'product810cluster0'
p1625
sa(dp1626
g2
I4
sg3
I811
sg4
S'product811cluster4'
p1627
sa(dp1628
g2
I10
sg3
I812
sg4
S'product812cluster10'
p1629
sa(dp1630
g2
I14
sg3
I813
sg4
S'product813cluster14'
p1631
sa(dp1632
g2
I15
sg3
I814
sg4
S'product814cluster15'
p1633
sa(dp1634
g2
I11
sg3
I815
sg4
S'product815cluster11'
p1635
sa(dp1636
g2
I13
sg3
I816
sg4
S'product816cluster13'
p1637
sa(dp1638
g2
I16
sg3
I817
sg4
S'product817cluster16'
p1639
sa(dp1640
g2
I0
sg3
I818
sg4
S'product818cluster0'
p1641
sa(dp1642
g2
I0
sg3
I819
sg4
S'product819cluster0'
p1643
sa(dp1644
g2
I17
sg3
I820
sg4
S'product820cluster17'
p1645
sa(dp1646
g2
I5
sg3
I821
sg4
S'product821cluster5'
p1647
sa(dp1648
g2
I12
sg3
I822
sg4
S'product822cluster12'
p1649
sa(dp1650
g2
I5
sg3
I823
sg4
S'product823cluster5'
p1651
sa(dp1652
g2
I12
sg3
I824
sg4
S'product824cluster12'
p1653
sa(dp1654
g2
I19
sg3
I825
sg4
S'product825cluster19'
p1655
sa(dp1656
g2
I6
sg3
I826
sg4
S'product826cluster6'
p1657
sa(dp1658
g2
I4
sg3
I827
sg4
S'product827cluster4'
p1659
sa(dp1660
g2
I8
sg3
I828
sg4
S'product828cluster8'
p1661
sa(dp1662
g2
I4
sg3
I829
sg4
S'product829cluster4'
p1663
sa(dp1664
g2
I17
sg3
I830
sg4
S'product830cluster17'
p1665
sa(dp1666
g2
I2
sg3
I831
sg4
S'product831cluster2'
p1667
sa(dp1668
g2
I0
sg3
I832
sg4
S'product832cluster0'
p1669
sa(dp1670
g2
I15
sg3
I833
sg4
S'product833cluster15'
p1671
sa(dp1672
g2
I8
sg3
I834
sg4
S'product834cluster8'
p1673
sa(dp1674
g2
I15
sg3
I835
sg4
S'product835cluster15'
p1675
sa(dp1676
g2
I6
sg3
I836
sg4
S'product836cluster6'
p1677
sa(dp1678
g2
I14
sg3
I837
sg4
S'product837cluster14'
p1679
sa(dp1680
g2
I6
sg3
I838
sg4
S'product838cluster6'
p1681
sa(dp1682
g2
I14
sg3
I839
sg4
S'product839cluster14'
p1683
sa(dp1684
g2
I3
sg3
I840
sg4
S'product840cluster3'
p1685
sa(dp1686
g2
I7
sg3
I841
sg4
S'product841cluster7'
p1687
sa(dp1688
g2
I14
sg3
I842
sg4
S'product842cluster14'
p1689
sa(dp1690
g2
I9
sg3
I843
sg4
S'product843cluster9'
p1691
sa(dp1692
g2
I19
sg3
I844
sg4
S'product844cluster19'
p1693
sa(dp1694
g2
I3
sg3
I845
sg4
S'product845cluster3'
p1695
sa(dp1696
g2
I8
sg3
I846
sg4
S'product846cluster8'
p1697
sa(dp1698
g2
I5
sg3
I847
sg4
S'product847cluster5'
p1699
sa(dp1700
g2
I6
sg3
I848
sg4
S'product848cluster6'
p1701
sa(dp1702
g2
I2
sg3
I849
sg4
S'product849cluster2'
p1703
sa(dp1704
g2
I4
sg3
I850
sg4
S'product850cluster4'
p1705
sa(dp1706
g2
I1
sg3
I851
sg4
S'product851cluster1'
p1707
sa(dp1708
g2
I8
sg3
I852
sg4
S'product852cluster8'
p1709
sa(dp1710
g2
I8
sg3
I853
sg4
S'product853cluster8'
p1711
sa(dp1712
g2
I12
sg3
I854
sg4
S'product854cluster12'
p1713
sa(dp1714
g2
I15
sg3
I855
sg4
S'product855cluster15'
p1715
sa(dp1716
g2
I6
sg3
I856
sg4
S'product856cluster6'
p1717
sa(dp1718
g2
I7
sg3
I857
sg4
S'product857cluster7'
p1719
sa(dp1720
g2
I0
sg3
I858
sg4
S'product858cluster0'
p1721
sa(dp1722
g2
I6
sg3
I859
sg4
S'product859cluster6'
p1723
sa(dp1724
g2
I8
sg3
I860
sg4
S'product860cluster8'
p1725
sa(dp1726
g2
I10
sg3
I861
sg4
S'product861cluster10'
p1727
sa(dp1728
g2
I2
sg3
I862
sg4
S'product862cluster2'
p1729
sa(dp1730
g2
I16
sg3
I863
sg4
S'product863cluster16'
p1731
sa(dp1732
g2
I2
sg3
I864
sg4
S'product864cluster2'
p1733
sa(dp1734
g2
I19
sg3
I865
sg4
S'product865cluster19'
p1735
sa(dp1736
g2
I8
sg3
I866
sg4
S'product866cluster8'
p1737
sa(dp1738
g2
I1
sg3
I867
sg4
S'product867cluster1'
p1739
sa(dp1740
g2
I4
sg3
I868
sg4
S'product868cluster4'
p1741
sa(dp1742
g2
I4
sg3
I869
sg4
S'product869cluster4'
p1743
sa(dp1744
g2
I16
sg3
I870
sg4
S'product870cluster16'
p1745
sa(dp1746
g2
I18
sg3
I871
sg4
S'product871cluster18'
p1747
sa(dp1748
g2
I5
sg3
I872
sg4
S'product872cluster5'
p1749
sa(dp1750
g2
I16
sg3
I873
sg4
S'product873cluster16'
p1751
sa(dp1752
g2
I8
sg3
I874
sg4
S'product874cluster8'
p1753
sa(dp1754
g2
I19
sg3
I875
sg4
S'product875cluster19'
p1755
sa(dp1756
g2
I12
sg3
I876
sg4
S'product876cluster12'
p1757
sa(dp1758
g2
I1
sg3
I877
sg4
S'product877cluster1'
p1759
sa(dp1760
g2
I4
sg3
I878
sg4
S'product878cluster4'
p1761
sa(dp1762
g2
I17
sg3
I879
sg4
S'product879cluster17'
p1763
sa(dp1764
g2
I12
sg3
I880
sg4
S'product880cluster12'
p1765
sa(dp1766
g2
I3
sg3
I881
sg4
S'product881cluster3'
p1767
sa(dp1768
g2
I15
sg3
I882
sg4
S'product882cluster15'
p1769
sa(dp1770
g2
I15
sg3
I883
sg4
S'product883cluster15'
p1771
sa(dp1772
g2
I6
sg3
I884
sg4
S'product884cluster6'
p1773
sa(dp1774
g2
I11
sg3
I885
sg4
S'product885cluster11'
p1775
sa(dp1776
g2
I6
sg3
I886
sg4
S'product886cluster6'
p1777
sa(dp1778
g2
I2
sg3
I887
sg4
S'product887cluster2'
p1779
sa(dp1780
g2
I12
sg3
I888
sg4
S'product888cluster12'
p1781
sa(dp1782
g2
I17
sg3
I889
sg4
S'product889cluster17'
p1783
sa(dp1784
g2
I14
sg3
I890
sg4
S'product890cluster14'
p1785
sa(dp1786
g2
I0
sg3
I891
sg4
S'product891cluster0'
p1787
sa(dp1788
g2
I5
sg3
I892
sg4
S'product892cluster5'
p1789
sa(dp1790
g2
I0
sg3
I893
sg4
S'product893cluster0'
p1791
sa(dp1792
g2
I1
sg3
I894
sg4
S'product894cluster1'
p1793
sa(dp1794
g2
I0
sg3
I895
sg4
S'product895cluster0'
p1795
sa(dp1796
g2
I11
sg3
I896
sg4
S'product896cluster11'
p1797
sa(dp1798
g2
I6
sg3
I897
sg4
S'product897cluster6'
p1799
sa(dp1800
g2
I4
sg3
I898
sg4
S'product898cluster4'
p1801
sa(dp1802
g2
I12
sg3
I899
sg4
S'product899cluster12'
p1803
sa(dp1804
g2
I11
sg3
I900
sg4
S'product900cluster11'
p1805
sa(dp1806
g2
I0
sg3
I901
sg4
S'product901cluster0'
p1807
sa(dp1808
g2
I19
sg3
I902
sg4
S'product902cluster19'
p1809
sa(dp1810
g2
I3
sg3
I903
sg4
S'product903cluster3'
p1811
sa(dp1812
g2
I7
sg3
I904
sg4
S'product904cluster7'
p1813
sa(dp1814
g2
I3
sg3
I905
sg4
S'product905cluster3'
p1815
sa(dp1816
g2
I9
sg3
I906
sg4
S'product906cluster9'
p1817
sa(dp1818
g2
I6
sg3
I907
sg4
S'product907cluster6'
p1819
sa(dp1820
g2
I0
sg3
I908
sg4
S'product908cluster0'
p1821
sa(dp1822
g2
I4
sg3
I909
sg4
S'product909cluster4'
p1823
sa(dp1824
g2
I5
sg3
I910
sg4
S'product910cluster5'
p1825
sa(dp1826
g2
I7
sg3
I911
sg4
S'product911cluster7'
p1827
sa(dp1828
g2
I11
sg3
I912
sg4
S'product912cluster11'
p1829
sa(dp1830
g2
I2
sg3
I913
sg4
S'product913cluster2'
p1831
sa(dp1832
g2
I10
sg3
I914
sg4
S'product914cluster10'
p1833
sa(dp1834
g2
I18
sg3
I915
sg4
S'product915cluster18'
p1835
sa(dp1836
g2
I2
sg3
I916
sg4
S'product916cluster2'
p1837
sa(dp1838
g2
I11
sg3
I917
sg4
S'product917cluster11'
p1839
sa(dp1840
g2
I1
sg3
I918
sg4
S'product918cluster1'
p1841
sa(dp1842
g2
I0
sg3
I919
sg4
S'product919cluster0'
p1843
sa(dp1844
g2
I15
sg3
I920
sg4
S'product920cluster15'
p1845
sa(dp1846
g2
I18
sg3
I921
sg4
S'product921cluster18'
p1847
sa(dp1848
g2
I11
sg3
I922
sg4
S'product922cluster11'
p1849
sa(dp1850
g2
I6
sg3
I923
sg4
S'product923cluster6'
p1851
sa(dp1852
g2
I7
sg3
I924
sg4
S'product924cluster7'
p1853
sa(dp1854
g2
I6
sg3
I925
sg4
S'product925cluster6'
p1855
sa(dp1856
g2
I7
sg3
I926
sg4
S'product926cluster7'
p1857
sa(dp1858
g2
I17
sg3
I927
sg4
S'product927cluster17'
p1859
sa(dp1860
g2
I10
sg3
I928
sg4
S'product928cluster10'
p1861
sa(dp1862
g2
I18
sg3
I929
sg4
S'product929cluster18'
p1863
sa(dp1864
g2
I10
sg3
I930
sg4
S'product930cluster10'
p1865
sa(dp1866
g2
I8
sg3
I931
sg4
S'product931cluster8'
p1867
sa(dp1868
g2
I2
sg3
I932
sg4
S'product932cluster2'
p1869
sa(dp1870
g2
I3
sg3
I933
sg4
S'product933cluster3'
p1871
sa(dp1872
g2
I9
sg3
I934
sg4
S'product934cluster9'
p1873
sa(dp1874
g2
I10
sg3
I935
sg4
S'product935cluster10'
p1875
sa(dp1876
g2
I18
sg3
I936
sg4
S'product936cluster18'
p1877
sa(dp1878
g2
I6
sg3
I937
sg4
S'product937cluster6'
p1879
sa(dp1880
g2
I11
sg3
I938
sg4
S'product938cluster11'
p1881
sa(dp1882
g2
I2
sg3
I939
sg4
S'product939cluster2'
p1883
sa(dp1884
g2
I13
sg3
I940
sg4
S'product940cluster13'
p1885
sa(dp1886
g2
I19
sg3
I941
sg4
S'product941cluster19'
p1887
sa(dp1888
g2
I11
sg3
I942
sg4
S'product942cluster11'
p1889
sa(dp1890
g2
I11
sg3
I943
sg4
S'product943cluster11'
p1891
sa(dp1892
g2
I6
sg3
I944
sg4
S'product944cluster6'
p1893
sa(dp1894
g2
I7
sg3
I945
sg4
S'product945cluster7'
p1895
sa(dp1896
g2
I13
sg3
I946
sg4
S'product946cluster13'
p1897
sa(dp1898
g2
I14
sg3
I947
sg4
S'product947cluster14'
p1899
sa(dp1900
g2
I0
sg3
I948
sg4
S'product948cluster0'
p1901
sa(dp1902
g2
I9
sg3
I949
sg4
S'product949cluster9'
p1903
sa(dp1904
g2
I2
sg3
I950
sg4
S'product950cluster2'
p1905
sa(dp1906
g2
I2
sg3
I951
sg4
S'product951cluster2'
p1907
sa(dp1908
g2
I5
sg3
I952
sg4
S'product952cluster5'
p1909
sa(dp1910
g2
I0
sg3
I953
sg4
S'product953cluster0'
p1911
sa(dp1912
g2
I17
sg3
I954
sg4
S'product954cluster17'
p1913
sa(dp1914
g2
I10
sg3
I955
sg4
S'product955cluster10'
p1915
sa(dp1916
g2
I17
sg3
I956
sg4
S'product956cluster17'
p1917
sa(dp1918
g2
I7
sg3
I957
sg4
S'product957cluster7'
p1919
sa(dp1920
g2
I0
sg3
I958
sg4
S'product958cluster0'
p1921
sa(dp1922
g2
I4
sg3
I959
sg4
S'product959cluster4'
p1923
sa(dp1924
g2
I9
sg3
I960
sg4
S'product960cluster9'
p1925
sa(dp1926
g2
I13
sg3
I961
sg4
S'product961cluster13'
p1927
sa(dp1928
g2
I8
sg3
I962
sg4
S'product962cluster8'
p1929
sa(dp1930
g2
I5
sg3
I963
sg4
S'product963cluster5'
p1931
sa(dp1932
g2
I9
sg3
I964
sg4
S'product964cluster9'
p1933
sa(dp1934
g2
I13
sg3
I965
sg4
S'product965cluster13'
p1935
sa(dp1936
g2
I10
sg3
I966
sg4
S'product966cluster10'
p1937
sa(dp1938
g2
I14
sg3
I967
sg4
S'product967cluster14'
p1939
sa(dp1940
g2
I5
sg3
I968
sg4
S'product968cluster5'
p1941
sa(dp1942
g2
I14
sg3
I969
sg4
S'product969cluster14'
p1943
sa(dp1944
g2
I13
sg3
I970
sg4
S'product970cluster13'
p1945
sa(dp1946
g2
I4
sg3
I971
sg4
S'product971cluster4'
p1947
sa(dp1948
g2
I11
sg3
I972
sg4
S'product972cluster11'
p1949
sa(dp1950
g2
I19
sg3
I973
sg4
S'product973cluster19'
p1951
sa(dp1952
g2
I0
sg3
I974
sg4
S'product974cluster0'
p1953
sa(dp1954
g2
I5
sg3
I975
sg4
S'product975cluster5'
p1955
sa(dp1956
g2
I14
sg3
I976
sg4
S'product976cluster14'
p1957
sa(dp1958
g2
I7
sg3
I977
sg4
S'product977cluster7'
p1959
sa(dp1960
g2
I18
sg3
I978
sg4
S'product978cluster18'
p1961
sa(dp1962
g2
I5
sg3
I979
sg4
S'product979cluster5'
p1963
sa(dp1964
g2
I8
sg3
I980
sg4
S'product980cluster8'
p1965
sa(dp1966
g2
I12
sg3
I981
sg4
S'product981cluster12'
p1967
sa(dp1968
g2
I9
sg3
I982
sg4
S'product982cluster9'
p1969
sa(dp1970
g2
I3
sg3
I983
sg4
S'product983cluster3'
p1971
sa(dp1972
g2
I5
sg3
I984
sg4
S'product984cluster5'
p1973
sa(dp1974
g2
I18
sg3
I985
sg4
S'product985cluster18'
p1975
sa(dp1976
g2
I12
sg3
I986
sg4
S'product986cluster12'
p1977
sa(dp1978
g2
I7
sg3
I987
sg4
S'product987cluster7'
p1979
sa(dp1980
g2
I17
sg3
I988
sg4
S'product988cluster17'
p1981
sa(dp1982
g2
I11
sg3
I989
sg4
S'product989cluster11'
p1983
sa(dp1984
g2
I11
sg3
I990
sg4
S'product990cluster11'
p1985
sa(dp1986
g2
I10
sg3
I991
sg4
S'product991cluster10'
p1987
sa(dp1988
g2
I14
sg3
I992
sg4
S'product992cluster14'
p1989
sa(dp1990
g2
I0
sg3
I993
sg4
S'product993cluster0'
p1991
sa(dp1992
g2
I10
sg3
I994
sg4
S'product994cluster10'
p1993
sa(dp1994
g2
I6
sg3
I995
sg4
S'product995cluster6'
p1995
sa(dp1996
g2
I10
sg3
I996
sg4
S'product996cluster10'
p1997
sa(dp1998
g2
I2
sg3
I997
sg4
S'product997cluster2'
p1999
sa(dp2000
g2
I5
sg3
I998
sg4
S'product998cluster5'
p2001
sa(dp2002
g2
I2
sg3
I999
sg4
S'product999cluster2'
p2003
sa.