(lp0
(dp1
S'prod_ids'
p2
(lp3
I2
aI27
aI29
aI33
aI40
aI71
aI75
aI79
aI96
aI102
aI109
aI139
aI145
aI178
aI189
aI198
aI231
aI266
aI357
aI402
aI428
aI452
aI474
aI496
aI501
aI518
aI557
aI561
aI590
aI606
aI617
aI647
aI678
aI729
aI734
aI798
aI804
aI810
aI818
aI819
aI832
aI858
aI891
aI893
aI895
aI901
aI908
aI919
aI948
aI953
aI958
aI974
aI993
asS'cluster_id'
p4
I0
sa(dp5
g2
(lp6
I1
aI3
aI9
aI46
aI50
aI83
aI114
aI126
aI154
aI162
aI181
aI195
aI233
aI248
aI274
aI275
aI289
aI315
aI325
aI345
aI386
aI394
aI399
aI408
aI411
aI437
aI473
aI505
aI517
aI531
aI533
aI559
aI560
aI623
aI638
aI660
aI680
aI726
aI744
aI748
aI755
aI758
aI809
aI851
aI867
aI877
aI894
aI918
asg4
I1
sa(dp7
g2
(lp8
I14
aI17
aI25
aI30
aI34
aI84
aI121
aI128
aI165
aI173
aI174
aI201
aI225
aI239
aI260
aI262
aI263
aI264
aI300
aI309
aI326
aI342
aI351
aI375
aI409
aI420
aI423
aI446
aI465
aI472
aI497
aI512
aI541
aI542
aI544
aI551
aI558
aI581
aI594
aI597
aI602
aI611
aI613
aI630
aI686
aI693
aI703
aI707
aI727
aI743
aI759
aI776
aI789
aI802
aI805
aI831
aI849
aI862
aI864
aI887
aI913
aI916
aI932
aI939
aI950
aI951
aI997
aI999
asg4
I2
sa(dp9
g2
(lp10
I13
aI98
aI103
aI123
aI142
aI144
aI158
aI166
aI167
aI183
aI192
aI212
aI216
aI224
aI238
aI257
aI277
aI316
aI333
aI339
aI341
aI353
aI456
aI461
aI462
aI478
aI488
aI499
aI543
aI548
aI555
aI572
aI595
aI596
aI605
aI627
aI642
aI719
aI723
aI747
aI780
aI799
aI803
aI808
aI840
aI845
aI881
aI903
aI905
aI933
aI983
asg4
I3
sa(dp11
g2
(lp12
I48
aI100
aI111
aI124
aI134
aI186
aI227
aI230
aI269
aI305
aI319
aI360
aI366
aI405
aI407
aI418
aI422
aI427
aI434
aI439
aI460
aI470
aI471
aI523
aI525
aI527
aI567
aI640
aI695
aI751
aI773
aI778
aI790
aI811
aI827
aI829
aI850
aI868
aI869
aI878
aI898
aI909
aI959
aI971
asg4
I4
sa(dp13
g2
(lp14
I22
aI24
aI31
aI58
aI59
aI69
aI80
aI95
aI125
aI127
aI156
aI184
aI202
aI214
aI246
aI247
aI255
aI268
aI271
aI298
aI303
aI311
aI364
aI365
aI389
aI390
aI404
aI416
aI430
aI467
aI504
aI556
aI601
aI625
aI650
aI663
aI704
aI728
aI781
aI795
aI821
aI823
aI847
aI872
aI892
aI910
aI952
aI963
aI968
aI975
aI979
aI984
aI998
asg4
I5
sa(dp15
g2
(lp16
I28
aI132
aI138
aI164
aI182
aI204
aI284
aI285
aI295
aI328
aI344
aI393
aI431
aI443
aI492
aI495
aI521
aI565
aI588
aI599
aI600
aI610
aI628
aI637
aI644
aI646
aI653
aI667
aI671
aI685
aI696
aI738
aI749
aI756
aI770
aI777
aI826
aI836
aI838
aI848
aI856
aI859
aI884
aI886
aI897
aI907
aI923
aI925
aI937
aI944
aI995
asg4
I6
sa(dp17
g2
(lp18
I12
aI21
aI23
aI38
aI41
aI62
aI67
aI68
aI85
aI104
aI108
aI119
aI143
aI147
aI205
aI210
aI223
aI253
aI265
aI272
aI287
aI334
aI349
aI369
aI378
aI383
aI388
aI392
aI400
aI468
aI486
aI491
aI532
aI545
aI598
aI609
aI612
aI620
aI629
aI641
aI651
aI656
aI682
aI725
aI730
aI735
aI742
aI754
aI771
aI775
aI787
aI841
aI857
aI904
aI911
aI924
aI926
aI945
aI957
aI977
aI987
asg4
I7
sa(dp19
g2
(lp20
I20
aI56
aI82
aI88
aI89
aI120
aI130
aI137
aI140
aI141
aI151
aI155
aI176
aI217
aI218
aI220
aI240
aI259
aI306
aI338
aI352
aI372
aI429
aI436
aI442
aI479
aI508
aI582
aI583
aI603
aI618
aI634
aI659
aI681
aI687
aI691
aI720
aI721
aI737
aI745
aI757
aI785
aI797
aI828
aI834
aI846
aI852
aI853
aI860
aI866
aI874
aI931
aI962
aI980
asg4
I8
sa(dp21
g2
(lp22
I11
aI43
aI47
aI152
aI171
aI193
aI232
aI279
aI283
aI291
aI312
aI322
aI336
aI343
aI350
aI363
aI391
aI395
aI410
aI421
aI441
aI450
aI451
aI481
aI500
aI502
aI507
aI509
aI515
aI530
aI539
aI552
aI564
aI566
aI578
aI586
aI604
aI614
aI649
aI706
aI711
aI715
aI722
aI762
aI769
aI788
aI794
aI800
aI843
aI906
aI934
aI949
aI960
aI964
aI982
asg4
I9
sa(dp23
g2
(lp24
I4
aI32
aI35
aI36
aI45
aI60
aI86
aI105
aI149
aI169
aI196
aI206
aI209
aI211
aI213
aI221
aI243
aI250
aI261
aI281
aI294
aI296
aI302
aI379
aI382
aI401
aI426
aI459
aI476
aI540
aI570
aI608
aI626
aI635
aI688
aI698
aI718
aI750
aI765
aI782
aI784
aI796
aI812
aI861
aI914
aI928
aI930
aI935
aI955
aI966
aI991
aI994
aI996
asg4
I10
sa(dp25
g2
(lp26
I6
aI42
aI54
aI61
aI66
aI70
aI74
aI78
aI87
aI106
aI113
aI129
aI175
aI177
aI180
aI194
aI197
aI208
aI245
aI249
aI282
aI297
aI299
aI308
aI321
aI329
aI335
aI348
aI384
aI397
aI435
aI449
aI485
aI494
aI514
aI519
aI522
aI547
aI571
aI580
aI589
aI593
aI622
aI655
aI666
aI700
aI705
aI710
aI766
aI801
aI815
aI885
aI896
aI900
aI912
aI917
aI922
aI938
aI942
aI943
aI972
aI989
aI990
asg4
I11
sa(dp27
g2
(lp28
I7
aI37
aI153
aI161
aI172
aI190
aI200
aI228
aI244
aI327
aI356
aI385
aI403
aI414
aI415
aI447
aI455
aI482
aI487
aI511
aI524
aI577
aI579
aI585
aI615
aI624
aI639
aI654
aI664
aI665
aI669
aI690
aI699
aI731
aI732
aI772
aI786
aI822
aI824
aI854
aI876
aI880
aI888
aI899
aI981
aI986
asg4
I12
sa(dp29
g2
(lp30
I10
aI16
aI26
aI76
aI81
aI90
aI99
aI115
aI131
aI148
aI179
aI187
aI219
aI251
aI252
aI256
aI267
aI301
aI332
aI358
aI398
aI432
aI444
aI463
aI489
aI510
aI526
aI528
aI535
aI554
aI574
aI616
aI631
aI701
aI716
aI733
aI739
aI753
aI779
aI807
aI816
aI940
aI946
aI961
aI965
aI970
asg4
I13
sa(dp31
g2
(lp32
I18
aI51
aI112
aI146
aI199
aI222
aI229
aI236
aI237
aI242
aI273
aI293
aI307
aI314
aI330
aI337
aI354
aI359
aI377
aI417
aI425
aI433
aI458
aI503
aI549
aI573
aI584
aI587
aI661
aI662
aI692
aI702
aI712
aI714
aI741
aI806
aI813
aI837
aI839
aI842
aI890
aI947
aI967
aI969
aI976
aI992
asg4
I14
sa(dp33
g2
(lp34
I5
aI19
aI39
aI44
aI64
aI65
aI97
aI101
aI107
aI110
aI116
aI117
aI150
aI203
aI215
aI270
aI288
aI317
aI318
aI323
aI347
aI371
aI412
aI438
aI448
aI464
aI516
aI534
aI546
aI563
aI619
aI633
aI643
aI657
aI658
aI672
aI679
aI689
aI708
aI709
aI724
aI752
aI792
aI814
aI833
aI835
aI855
aI882
aI883
aI920
asg4
I15
sa(dp35
g2
(lp36
I55
aI63
aI77
aI91
aI92
aI93
aI122
aI135
aI188
aI191
aI234
aI276
aI310
aI320
aI324
aI331
aI346
aI368
aI370
aI374
aI376
aI380
aI419
aI453
aI484
aI493
aI498
aI513
aI538
aI562
aI575
aI591
aI636
aI645
aI668
aI713
aI774
aI817
aI863
aI870
aI873
asg4
I16
sa(dp37
g2
(lp38
I15
aI49
aI57
aI72
aI118
aI168
aI170
aI241
aI254
aI290
aI292
aI313
aI340
aI355
aI396
aI424
aI454
aI466
aI469
aI475
aI477
aI480
aI483
aI569
aI592
aI607
aI648
aI652
aI673
aI674
aI677
aI694
aI697
aI717
aI760
aI761
aI763
aI768
aI793
aI820
aI830
aI879
aI889
aI927
aI954
aI956
aI988
asg4
I17
sa(dp39
g2
(lp40
I8
aI53
aI94
aI157
aI159
aI160
aI163
aI185
aI226
aI278
aI304
aI362
aI373
aI381
aI387
aI406
aI490
aI506
aI553
aI670
aI676
aI683
aI736
aI767
aI791
aI871
aI915
aI921
aI929
aI936
aI978
aI985
asg4
I18
sa(dp41
g2
(lp42
I0
aI52
aI73
aI133
aI136
aI207
aI235
aI258
aI280
aI286
aI361
aI367
aI413
aI440
aI445
aI457
aI520
aI529
aI536
aI537
aI550
aI568
aI576
aI621
aI632
aI675
aI684
aI740
aI746
aI764
aI783
aI825
aI844
aI865
aI875
aI902
aI941
aI973
asg4
I19
sa.